ASxxxx Linker V03.00 + NoICE + sdld,  page 1.
Hexadecimal  [32-Bits]

Area                                    Addr        Size        Decimal Bytes (Attributes)
--------------------------------        ----        ----        ------- ----- ------------
.  .ABS.                            00000000    00000000 =           0. bytes (ABS,CON)

      Value  Global                              Global Defined In Module
      -----  --------------------------------   ------------------------
     00000000  .__.ABS.                           
     00000000  _rRAMG                             
     00000000  l__BASE                         
     00000000  l__BSS                          
     00000000  l__CABS                         
     00000000  l__CODE_0                       
     00000000  l__CRASH_HEADER                 
     00000000  l__CRASH_SCRATCH                
     00000000  l__DABS                         
     00000000  l__HEADER                       
     00000000  l__HEADER_LCD                   
     00000000  l__HEADER_SIO                   
     00000000  l__HEADER_TIMER                 
     00000000  l__HEAP                         
     00000000  l__HRAM                         
     00000000  l__LIT                          
     00000000  s__CABS                         
     00000000  s__CRASH_HEADER                 
     00000000  s__CRASH_HEADER0                
     00000000  s__CRASH_HEADER1                
     00000000  s__CRASH_SCRATCH                
     00000000  s__CRASH_SCRATCH2               
     00000000  s__DABS                         
     00000000  s__HEADER                       
     00000000  s__HEADER0                      
     00000000  s__HEADER1                      
     00000000  s__HEADER10                     
     00000000  s__HEADER11                     
     00000000  s__HEADER2                      
     00000000  s__HEADER3                      
     00000000  s__HEADER4                      
     00000000  s__HEADER5                      
     00000000  s__HEADER6                      
     00000000  s__HEADER7                      
     00000000  s__HEADER8                      
     00000000  s__HEADER9                      
     00000000  s__HEADER_LCD                   
     00000000  s__HEADER_LCD0                  
     00000000  s__HEADER_SIO                   
     00000000  s__HEADER_SIO0                  
     00000000  s__HEADER_TIMER                 
     00000000  s__HEADER_TIMER0                
     00000000  s__HEADERa                      
     00000000  s__HEADERb                      
     00000000  s__HEADERc                      
     00000000  s__HEADERd                      
     00000000  s__HEADERe                      
     00000000  s__HEADERf                      
     00000000  s__HRAM                         
     00000000  s__HRAM12                       
ASxxxx Linker V03.00 + NoICE + sdld,  page 2.
Hexadecimal  [32-Bits]

Area                                    Addr        Size        Decimal Bytes (Attributes)
--------------------------------        ----        ----        ------- ----- ------------
.  .ABS.                            00000000    00000000 =           0. bytes (ABS,CON)

      Value  Global                              Global Defined In Module
      -----  --------------------------------   ------------------------
     00000001  b_activate_actor                   actor
     00000001  b_activate_actors_in_col           actor
     00000001  b_activate_actors_in_row           actor
     00000001  b_actor_at_tile                    actor
     00000001  b_actor_get_frame_offset           actor
     00000001  b_actor_in_front_of_player         actor
     00000001  b_actor_overlapping_bb             actor
     00000001  b_actor_overlapping_player         actor
     00000001  b_actor_set_anim_idle              actor
     00000001  b_actor_set_anim_moving            actor
     00000001  b_actor_set_dir                    actor
     00000001  b_actor_set_frame_offset           actor
     00000001  b_actor_set_frames                 actor
     00000001  b_actors_handle_player_collision   actor
     00000001  b_actors_init                      actor
     00000001  b_camera_init                      camera
     00000001  b_camera_reset                     camera
     00000001  b_check_collision_in_direction     actor
     00000001  b_deactivate_actor                 actor
     00000001  b_parallax_init                    parallax
     00000001  b_player_init                      actor
     00000001  b_remove_LCD_ISRs                  interrupts
     00000001  b_scroll_init                      scroll
     00000001  b_scroll_repaint                   scroll
     00000001  b_scroll_reset                     scroll
     00000001  b_scroll_update                    scroll
     00000001  b_ui_draw_frame                    ui
     00000001  b_ui_draw_text_buffer_char         ui
     00000001  b_ui_init                          ui
     00000001  b_ui_load_tiles                    ui
     00000001  b_ui_run_menu                      ui
     00000001  b_ui_run_modal                     ui
     00000001  l__GSFINAL                      
     00000001  l__HEADER0                      
     00000001  l__HEADER11                     
     00000001  l__HEADER9                      
     00000001  l__HEADERa                      
     00000001  l__HEADERb                      
     00000001  l__HEADERd                      
     00000001  l__HEADERe                      
     00000002  b_camera_shake_frames              vm_camera
     00000002  b_itoa_fmt                         vm_ui_a
     00000002  b_script_execute                   vm
     00000002  b_script_runner_init               vm
     00000002  b_script_terminate                 vm
     00000002  b_scroll_rect                      
     00000002  b_vm_actor_activate                vm_actor
     00000002  b_vm_actor_deactivate              vm_actor
     00000002  b_vm_actor_emote                   vm_actor
     00000002  b_vm_actor_get_angle               vm_actor
     00000002  b_vm_actor_get_anim_frame          vm_actor
ASxxxx Linker V03.00 + NoICE + sdld,  page 3.
Hexadecimal  [32-Bits]

Area                                    Addr        Size        Decimal Bytes (Attributes)
--------------------------------        ----        ----        ------- ----- ------------
.  .ABS.                            00000000    00000000 =           0. bytes (ABS,CON)

      Value  Global                              Global Defined In Module
      -----  --------------------------------   ------------------------
     00000002  b_vm_actor_get_dir                 vm_actor
     00000002  b_vm_actor_get_pos                 vm_actor
     00000002  b_vm_actor_move_to                 vm_actor
     00000002  b_vm_actor_replace_tile            vm_actor
     00000002  b_vm_actor_set_anim                vm_actor
     00000002  b_vm_actor_set_anim_frame          vm_actor
     00000002  b_vm_actor_set_anim_set            vm_actor
     00000002  b_vm_actor_set_anim_tick           vm_actor
     00000002  b_vm_actor_set_bounds              vm_actor
     00000002  b_vm_actor_set_coll_enabled        vm_actor
     00000002  b_vm_actor_set_dir                 vm_actor
     00000002  b_vm_actor_set_hidden              vm_actor
     00000002  b_vm_actor_set_move_speed          vm_actor
     00000002  b_vm_actor_set_pos                 vm_actor
     00000002  b_vm_actor_set_spritesheet         vm_actor
     00000002  b_vm_actor_set_spritesheet_by_re   vm_actor
     00000002  b_vm_actor_terminate_update        vm_actor
     00000002  b_vm_call                          vm
     00000002  b_vm_call_far                      vm
     00000002  b_vm_call_rel                      vm
     00000002  b_vm_camera_move_to                vm_camera
     00000002  b_vm_camera_set_pos                vm_camera
     00000002  b_vm_choice                        vm_ui
     00000002  b_vm_context_prepare               vm_gameboy
     00000002  b_vm_cos_scale                     vm_math
     00000002  b_vm_display_text                  vm_ui
     00000002  b_vm_fade_in                       vm_gameboy
     00000002  b_vm_fade_out                      vm_gameboy
     00000002  b_vm_get_indirect                  vm
     00000002  b_vm_get_int16                     vm
     00000002  b_vm_get_int8                      vm
     00000002  b_vm_get_tile_xy                   vm_gameboy
     00000002  b_vm_get_tlocal                    vm
     00000002  b_vm_get_uint8                     vm
     00000002  b_vm_hide_sprites                  vm_gameboy
     00000002  b_vm_idle                          vm
     00000002  b_vm_if                            vm
     00000002  b_vm_if_const                      vm
     00000002  b_vm_input_attach                  vm_gameboy
     00000002  b_vm_input_detach                  vm_gameboy
     00000002  b_vm_input_get                     vm_gameboy
     00000002  b_vm_input_wait                    vm_gameboy
     00000002  b_vm_invoke                        vm
     00000002  b_vm_join                          vm
     00000002  b_vm_jump                          vm
     00000002  b_vm_jump_rel                      vm
     00000002  b_vm_load_cursor                   vm_ui
     00000002  b_vm_load_frame                    vm_ui
     00000002  b_vm_load_palette                  vm_palette
     00000002  b_vm_lock                          vm
     00000002  b_vm_loop                          vm
ASxxxx Linker V03.00 + NoICE + sdld,  page 4.
Hexadecimal  [32-Bits]

Area                                    Addr        Size        Decimal Bytes (Attributes)
--------------------------------        ----        ----        ------- ----- ------------
.  .ABS.                            00000000    00000000 =           0. bytes (ABS,CON)

      Value  Global                              Global Defined In Module
      -----  --------------------------------   ------------------------
     00000002  b_vm_loop_rel                      vm
     00000002  b_vm_memcpy                        vm
     00000002  b_vm_memset                        vm
     00000002  b_vm_music_mute                    vm_music
     00000002  b_vm_music_play                    vm_music
     00000002  b_vm_music_routine                 vm_music
     00000002  b_vm_music_setpos                  vm_music
     00000002  b_vm_music_stop                    vm_music
     00000002  b_vm_overlay_clear                 vm_ui
     00000002  b_vm_overlay_hide                  vm_ui
     00000002  b_vm_overlay_move_to               vm_ui
     00000002  b_vm_overlay_scroll                vm_ui
     00000002  b_vm_overlay_set_scroll            vm_ui
     00000002  b_vm_overlay_set_submap            vm_ui
     00000002  b_vm_overlay_setpos                vm_ui
     00000002  b_vm_overlay_show                  vm_ui
     00000002  b_vm_overlay_wait                  vm_ui
     00000002  b_vm_poll                          vm_gameboy
     00000002  b_vm_poll_loaded                   vm
     00000002  b_vm_pop                           vm
     00000002  b_vm_projectile_launch             vm_projectiles
     00000002  b_vm_push                          vm
     00000002  b_vm_push_reference                vm
     00000002  b_vm_push_value                    vm
     00000002  b_vm_push_value_ind                vm
     00000002  b_vm_raise                         vm
     00000002  b_vm_rand                          vm
     00000002  b_vm_randomize                     vm
     00000002  b_vm_replace_tile                  vm_gameboy
     00000002  b_vm_replace_tile_xy               vm_gameboy
     00000002  b_vm_reserve                       vm
     00000002  b_vm_ret                           vm
     00000002  b_vm_ret_far                       vm
     00000002  b_vm_rtc_get                       vm_rtc
     00000002  b_vm_rtc_latch                     vm_rtc
     00000002  b_vm_rtc_set                       vm_rtc
     00000002  b_vm_rtc_start                     vm_rtc
     00000002  b_vm_rumble                        vm_gameboy
     00000002  b_vm_save_clear                    vm_load_save
     00000002  b_vm_save_peek                     vm_load_save
     00000002  b_vm_scene_pop                     vm_scene
     00000002  b_vm_scene_pop_all                 vm_scene
     00000002  b_vm_scene_push                    vm_scene
     00000002  b_vm_scene_stack_reset             vm_scene
     00000002  b_vm_set                           vm
     00000002  b_vm_set_const                     vm
     00000002  b_vm_set_const_int16               vm
     00000002  b_vm_set_const_int8                vm
     00000002  b_vm_set_font                      vm_ui
     00000002  b_vm_set_indirect                  vm
     00000002  b_vm_set_int16                     vm
ASxxxx Linker V03.00 + NoICE + sdld,  page 5.
Hexadecimal  [32-Bits]

Area                                    Addr        Size        Decimal Bytes (Attributes)
--------------------------------        ----        ----        ------- ----- ------------
.  .ABS.                            00000000    00000000 =           0. bytes (ABS,CON)

      Value  Global                              Global Defined In Module
      -----  --------------------------------   ------------------------
     00000002  b_vm_set_int8                      vm
     00000002  b_vm_set_print_dir                 vm_ui
     00000002  b_vm_set_sprite_mode               vm_gameboy
     00000002  b_vm_set_uint8                     vm
     00000002  b_vm_show_sprites                  vm_gameboy
     00000002  b_vm_sin_scale                     vm_math
     00000002  b_vm_sio_exchange                  vm_sio
     00000002  b_vm_sio_set_mode                  vm_sio
     00000002  b_vm_sound_mastervol               vm_music
     00000002  b_vm_sound_play                    vm_music
     00000002  b_vm_switch_text_layer             vm_ui
     00000002  b_vm_systime                       vm
     00000002  b_vm_terminate                     vm
     00000002  b_vm_test_terminate                vm
     00000002  b_vm_timer_prepare                 vm_gameboy
     00000002  b_vm_timer_reset                   vm_gameboy
     00000002  b_vm_timer_set                     vm_gameboy
     00000002  b_vm_timer_stop                    vm_gameboy
     00000002  b_vm_unlock                        vm
     00000002  b_vm_wave_play                     vm_music
     00000002  b_wait_frames                      vm
     00000002  l__HEADER5                      
     00000002  l__HEADERc                      
     00000002  l__HEADERf                      
     00000003  b_adventure_init                   adventure
     00000003  b_adventure_update                 adventure
     00000003  b_logo_init                        logo
     00000003  b_logo_update                      logo
     00000003  b_platform_init                    platform
     00000003  b_platform_update                  platform
     00000003  b_pointnclick_init                 pointnclick
     00000003  b_pointnclick_update               pointnclick
     00000003  b_shmup_init                       shmup
     00000003  b_shmup_update                     shmup
     00000003  b_topdown_init                     topdown
     00000003  b_topdown_update                   topdown
     00000003  l__HEADER8                      
     00000003  l__HEADER_LCD0                  
     00000003  l__HRAM12                       
     00000004  b_CGBZeroPalette                   palette
     00000004  b_SIO_init                         sio
     00000004  b_core_reset                       core
     00000004  b_core_run                         core
     00000004  b_data_clear                       load_save
     00000004  b_data_init                        load_save
     00000004  b_data_load                        load_save
     00000004  b_data_peek                        load_save
     00000004  b_data_save                        load_save
     00000004  b_do_load_palette                  data_manager
     00000004  b_events_init                      events
     00000004  b_fade_applypalettechange          fade_manager
ASxxxx Linker V03.00 + NoICE + sdld,  page 6.
Hexadecimal  [32-Bits]

Area                                    Addr        Size        Decimal Bytes (Attributes)
--------------------------------        ----        ----        ------- ----- ------------
.  .ABS.                            00000000    00000000 =           0. bytes (ABS,CON)

      Value  Global                              Global Defined In Module
      -----  --------------------------------   ------------------------
     00000004  b_fade_in                          fade_manager
     00000004  b_fade_in_modal                    fade_manager
     00000004  b_fade_init                        fade_manager
     00000004  b_fade_out                         fade_manager
     00000004  b_fade_out_modal                   fade_manager
     00000004  b_fade_setspeed                    fade_manager
     00000004  b_fade_update                      fade_manager
     00000004  b_input_init                       input
     00000004  b_load_background                  data_manager
     00000004  b_load_bkg_tileset                 data_manager
     00000004  b_load_bounds                      data_manager
     00000004  b_load_emote                       data_manager
     00000004  b_load_init                        data_manager
     00000004  b_load_player                      data_manager
     00000004  b_load_scene                       data_manager
     00000004  b_load_sprite                      data_manager
     00000004  b_music_events_poll                music_manager
     00000004  b_music_init                       music_manager
     00000004  b_music_stop                       music_manager
     00000004  b_palette_init                     palette
     00000004  b_projectile_launch                projectiles
     00000004  b_projectiles_init                 projectiles
     00000004  b_restore_sram                     flasher
     00000004  b_restore_sram_bank                flasher
     00000004  b_save_sram                        flasher
     00000004  b_set_sample                       sample_player
     00000004  b_set_sgb_border                   sgb_border
     00000004  b_sound_init                       music_manager
     00000004  b_sound_play                       music_manager
     00000004  b_timers_init                      events
     00000004  b_trigger_activate_at              trigger
     00000004  b_trigger_activate_at_intersecti   trigger
     00000004  b_trigger_at_intersection          trigger
     00000004  b_trigger_at_tile                  trigger
     00000004  b_trigger_interact                 trigger
     00000004  b_trigger_reset                    trigger
     00000004  b_wave_play                        music_manager
     00000004  l__CRASH_HEADER1                
     00000004  l__HEADER_SIO0                  
     00000004  l__HEADER_TIMER0                
     00000005  ___bank_scene_10_actors            scene_10_actors
     00000005  ___bank_scene_10_collisions        scene_10_collisions
     00000005  ___bank_scene_12_collisions        scene_12_collisions
     00000005  ___bank_scene_16_collisions        scene_16_collisions
     00000005  ___bank_scene_18_collisions        scene_18_collisions
     00000005  ___bank_script_s1_init             script_s1_init
     00000005  l__CRASH_HEADER0                
     00000005  l__HEADER1                      
     00000006  ___bank_bootstrap_script           
     00000006  ___bank_scene_20_collisions        scene_20_collisions
     00000006  ___bank_scene_24_collisions        scene_24_collisions
ASxxxx Linker V03.00 + NoICE + sdld,  page 7.
Hexadecimal  [32-Bits]

Area                                    Addr        Size        Decimal Bytes (Attributes)
--------------------------------        ----        ----        ------- ----- ------------
.  .ABS.                            00000000    00000000 =           0. bytes (ABS,CON)

      Value  Global                              Global Defined In Module
      -----  --------------------------------   ------------------------
     00000006  ___bank_scene_26_collisions        scene_26_collisions
     00000006  ___bank_scene_28_collisions        scene_28_collisions
     00000006  ___bank_script_s10a2_interact      script_s10a2_interact
     00000006  ___bank_tileset_29                 tileset_29
     00000006  l__HEADER7                      
     00000007  ___bank_background_0               background_0
     00000007  ___bank_frame_image                frame_image
     00000007  ___bank_scene_32_collisions        scene_32_collisions
     00000007  ___bank_scene_34_collisions        scene_34_collisions
     00000007  ___bank_scene_36_collisions        scene_36_collisions
     00000007  ___bank_scene_8_collisions         scene_8_collisions
     00000007  ___bank_script_s10_p_hit1          script_s10_p_hit1
     00000007  l__HEADER2                      
     00000008  ___bank_scene_16_sprites           scene_16_sprites
     00000008  ___bank_scene_2_sprites            scene_2_sprites
     00000008  ___bank_script_s8_p_hit1           script_s8_p_hit1
     00000008  ___bank_spritesheet_15             spritesheet_15
     00000008  ___bank_tilemap_23                 tilemap_23
     00000008  ___bank_tilemap_24                 tilemap_24
     00000008  ___bank_tilemap_25                 tilemap_25
     00000008  ___bank_tilemap_26                 tilemap_26
     00000008  l__HEADER3                      
     00000009  ___bank_scene_0_collisions         scene_0_collisions
     00000009  ___bank_scene_12_sprites           scene_12_sprites
     00000009  ___bank_script_s0_init             script_s0_init
     00000009  ___bank_tilemap_27                 tilemap_27
     00000009  ___bank_tilemap_28                 tilemap_28
     00000009  ___bank_tilemap_29                 tilemap_29
     00000009  ___bank_tilemap_30                 tilemap_30
     0000000A  ___bank_background_1               background_1
     0000000A  ___bank_scene_1_collisions         scene_1_collisions
     0000000A  ___bank_spritesheet_11             spritesheet_11
     0000000A  ___bank_tilemap_31                 tilemap_31
     0000000A  ___bank_tilemap_32                 tilemap_32
     0000000A  ___bank_tilemap_33                 tilemap_33
     0000000A  ___bank_tilemap_34                 tilemap_34
     0000000B  ___bank_cursor_image               cursor_image
     0000000B  ___bank_scene_11_collisions        scene_11_collisions
     0000000B  ___bank_scene_39_sprites           scene_39_sprites
     0000000B  ___bank_scene_3_sprites            scene_3_sprites
     0000000B  ___bank_tilemap_attr_10            tilemap_attr_10
     0000000B  ___bank_tilemap_attr_11            tilemap_attr_11
     0000000B  ___bank_tilemap_attr_12            tilemap_attr_12
     0000000B  ___bank_tilemap_attr_13            tilemap_attr_13
     0000000B  ___bank_tileset_20                 tileset_20
     0000000C  ___bank_background_10              background_10
     0000000C  ___bank_scene_10_triggers          scene_10_triggers
     0000000C  ___bank_scene_13_collisions        scene_13_collisions
     0000000C  ___bank_tilemap_attr_14            tilemap_attr_14
     0000000C  ___bank_tilemap_attr_15            tilemap_attr_15
     0000000C  ___bank_tilemap_attr_16            tilemap_attr_16
ASxxxx Linker V03.00 + NoICE + sdld,  page 8.
Hexadecimal  [32-Bits]

Area                                    Addr        Size        Decimal Bytes (Attributes)
--------------------------------        ----        ----        ------- ----- ------------
.  .ABS.                            00000000    00000000 =           0. bytes (ABS,CON)

      Value  Global                              Global Defined In Module
      -----  --------------------------------   ------------------------
     0000000C  ___bank_tilemap_attr_6             tilemap_attr_6
     0000000C  ___bank_tileset_27                 tileset_27
     0000000D  ___bank_font_0                     font_0
     0000000D  ___bank_scene_8_sprites            scene_8_sprites
     0000000D  ___bank_tilemap_attr_7             tilemap_attr_7
     0000000D  ___bank_tilemap_attr_8             tilemap_attr_8
     0000000D  ___bank_tilemap_attr_9             tilemap_attr_9
     0000000D  ___bank_tileset_1                  tileset_1
     0000000D  ___bank_tileset_18                 tileset_18
     0000000E  ___bank_background_11              background_11
     0000000E  ___bank_scene_40_sprites           scene_40_sprites
     0000000E  ___bank_spritesheet_7              spritesheet_7
     0000000E  ___bank_tileset_11                 tileset_11
     0000000E  ___bank_tileset_4                  tileset_4
     0000000E  ___bank_tileset_6                  tileset_6
     0000000E  ___bank_tileset_7                  tileset_7
     0000000E  ___bank_tileset_8                  tileset_8
     0000000E  ___bank_tileset_9                  tileset_9
     0000000E  l__INITIALIZED                  
     0000000E  l__INITIALIZER                  
     0000000F  ___bank_scene_14_collisions        scene_14_collisions
     0000000F  ___bank_scene_15_collisions        scene_15_collisions
     0000000F  ___bank_scene_17_collisions        scene_17_collisions
     0000000F  ___bank_scene_19_collisions        scene_19_collisions
     0000000F  ___bank_scene_21_collisions        scene_21_collisions
     0000000F  ___bank_scene_22_collisions        scene_22_collisions
     0000000F  ___bank_scene_23_collisions        scene_23_collisions
     0000000F  ___bank_scene_25_collisions        scene_25_collisions
     0000000F  ___bank_scene_27_collisions        scene_27_collisions
     0000000F  ___bank_scene_2_collisions         scene_2_collisions
     0000000F  ___bank_scene_41_sprites           scene_41_sprites
     0000000F  ___bank_scene_8_actors             scene_8_actors
     0000000F  ___bank_script_s3a0_update         script_s3a0_update
     0000000F  ___bank_script_s8_init             script_s8_init
     0000000F  ___bank_tileset_0                  tileset_0
     0000000F  ___bank_tileset_10                 tileset_10
     0000000F  ___bank_tileset_12                 tileset_12
     0000000F  ___bank_tileset_13                 tileset_13
     0000000F  ___bank_tileset_2                  tileset_2
     0000000F  ___bank_tileset_3                  tileset_3
     0000000F  ___bank_tileset_5                  tileset_5
     00000010  ___bank_background_12              background_12
     00000010  ___bank_scene_12_triggers          scene_12_triggers
     00000010  ___bank_scene_29_collisions        scene_29_collisions
     00000010  ___bank_scene_30_collisions        scene_30_collisions
     00000010  ___bank_scene_31_collisions        scene_31_collisions
     00000010  ___bank_scene_33_collisions        scene_33_collisions
     00000010  ___bank_scene_35_collisions        scene_35_collisions
     00000010  ___bank_scene_37_collisions        scene_37_collisions
     00000010  ___bank_scene_38_collisions        scene_38_collisions
     00000010  ___bank_scene_39_collisions        scene_39_collisions
ASxxxx Linker V03.00 + NoICE + sdld,  page 9.
Hexadecimal  [32-Bits]

Area                                    Addr        Size        Decimal Bytes (Attributes)
--------------------------------        ----        ----        ------- ----- ------------
.  .ABS.                            00000000    00000000 =           0. bytes (ABS,CON)

      Value  Global                              Global Defined In Module
      -----  --------------------------------   ------------------------
     00000010  ___bank_scene_3_collisions         scene_3_collisions
     00000010  ___bank_scene_40_collisions        scene_40_collisions
     00000010  ___bank_scene_41_collisions        scene_41_collisions
     00000010  ___bank_scene_42_collisions        scene_42_collisions
     00000010  ___bank_scene_4_collisions         scene_4_collisions
     00000010  ___bank_scene_5_collisions         scene_5_collisions
     00000010  ___bank_scene_6_collisions         scene_6_collisions
     00000010  ___bank_scene_7_collisions         scene_7_collisions
     00000010  ___bank_scene_9_collisions         scene_9_collisions
     00000010  ___bank_tilemap_0                  tilemap_0
     00000010  ___bank_tilemap_1                  tilemap_1
     00000010  ___bank_tilemap_10                 tilemap_10
     00000010  ___bank_tilemap_11                 tilemap_11
     00000010  ___bank_tilemap_12                 tilemap_12
     00000010  ___bank_tilemap_13                 tilemap_13
     00000010  ___bank_tilemap_14                 tilemap_14
     00000010  ___bank_tilemap_15                 tilemap_15
     00000010  ___bank_tilemap_16                 tilemap_16
     00000010  ___bank_tilemap_17                 tilemap_17
     00000010  ___bank_tilemap_18                 tilemap_18
     00000010  ___bank_tilemap_19                 tilemap_19
     00000010  ___bank_tilemap_2                  tilemap_2
     00000010  ___bank_tilemap_20                 tilemap_20
     00000010  ___bank_tilemap_21                 tilemap_21
     00000010  ___bank_tilemap_22                 tilemap_22
     00000010  ___bank_tilemap_3                  tilemap_3
     00000010  ___bank_tilemap_35                 tilemap_35
     00000010  ___bank_tilemap_36                 tilemap_36
     00000010  ___bank_tilemap_37                 tilemap_37
     00000010  ___bank_tilemap_38                 tilemap_38
     00000010  ___bank_tilemap_4                  tilemap_4
     00000010  ___bank_tilemap_5                  tilemap_5
     00000010  ___bank_tilemap_6                  tilemap_6
     00000010  ___bank_tilemap_7                  tilemap_7
     00000010  ___bank_tilemap_8                  tilemap_8
     00000010  ___bank_tilemap_9                  tilemap_9
     00000010  ___bank_tilemap_attr_0             tilemap_attr_0
     00000010  ___bank_tileset_28                 tileset_28
     00000011  ___bank_scene_16_actors            scene_16_actors
     00000011  ___bank_scene_6_sprites            scene_6_sprites
     00000011  ___bank_script_input_0             script_input_0
     00000011  ___bank_script_s10_init            script_s10_init
     00000011  ___bank_script_s10a0_update        script_s10a0_update
     00000011  ___bank_script_s10t0_interact      script_s10t0_interact
     00000011  ___bank_script_s11_init            script_s11_init
     00000011  ___bank_script_s12_init            script_s12_init
     00000011  ___bank_script_s12t0_interact      script_s12t0_interact
     00000011  ___bank_script_s15_init            script_s15_init
     00000011  ___bank_script_s16_init            script_s16_init
     00000011  ___bank_script_s16t0_interact      script_s16t0_interact
     00000011  ___bank_script_s17_init            script_s17_init
ASxxxx Linker V03.00 + NoICE + sdld,  page 10.
Hexadecimal  [32-Bits]

Area                                    Addr        Size        Decimal Bytes (Attributes)
--------------------------------        ----        ----        ------- ----- ------------
.  .ABS.                            00000000    00000000 =           0. bytes (ABS,CON)

      Value  Global                              Global Defined In Module
      -----  --------------------------------   ------------------------
     00000011  ___bank_script_s18_init            script_s18_init
     00000011  ___bank_script_s18t0_interact      script_s18t0_interact
     00000011  ___bank_script_s19_init            script_s19_init
     00000011  ___bank_script_s20_init            script_s20_init
     00000011  ___bank_script_s20t0_interact      script_s20t0_interact
     00000011  ___bank_script_s23_init            script_s23_init
     00000011  ___bank_script_s24_init            script_s24_init
     00000011  ___bank_script_s24t0_interact      script_s24t0_interact
     00000011  ___bank_script_s25_init            script_s25_init
     00000011  ___bank_script_s26_init            script_s26_init
     00000011  ___bank_script_s26t0_interact      script_s26t0_interact
     00000011  ___bank_script_s27_init            script_s27_init
     00000011  ___bank_script_s28_init            script_s28_init
     00000011  ___bank_script_s28t0_interact      script_s28t0_interact
     00000011  ___bank_script_s31_init            script_s31_init
     00000011  ___bank_script_s32_init            script_s32_init
     00000011  ___bank_script_s32t0_interact      script_s32t0_interact
     00000011  ___bank_script_s33_init            script_s33_init
     00000011  ___bank_script_s34_init            script_s34_init
     00000011  ___bank_script_s34t0_interact      script_s34t0_interact
     00000011  ___bank_script_s35_init            script_s35_init
     00000011  ___bank_script_s36_init            script_s36_init
     00000011  ___bank_script_s36t0_interact      script_s36t0_interact
     00000011  ___bank_script_s7_init             script_s7_init
     00000011  ___bank_script_s8a10_interact      script_s8a10_interact
     00000011  ___bank_script_s8a12_interact      script_s8a12_interact
     00000011  ___bank_script_s8a13_interact      script_s8a13_interact
     00000011  ___bank_script_s8a13_update        script_s8a13_update
     00000011  ___bank_script_s8a14_interact      script_s8a14_interact
     00000011  ___bank_script_s8a15_interact      script_s8a15_interact
     00000011  ___bank_script_s8a15_update        script_s8a15_update
     00000011  ___bank_script_s8a16_interact      script_s8a16_interact
     00000011  ___bank_script_s8a16_update        script_s8a16_update
     00000011  ___bank_script_s8a17_interact      script_s8a17_interact
     00000011  ___bank_script_s8a18_interact      script_s8a18_interact
     00000011  ___bank_script_s8a19_interact      script_s8a19_interact
     00000011  ___bank_script_s8a2_interact       script_s8a2_interact
     00000011  ___bank_script_s8a3_interact       script_s8a3_interact
     00000011  ___bank_script_s8a6_interact       script_s8a6_interact
     00000011  ___bank_script_s8a7_interact       script_s8a7_interact
     00000011  ___bank_script_s8a8_interact       script_s8a8_interact
     00000011  ___bank_script_s8a8_update         script_s8a8_update
     00000011  ___bank_script_s8a9_interact       script_s8a9_interact
     00000011  ___bank_script_s8t0_interact       script_s8t0_interact
     00000011  ___bank_script_s9_init             script_s9_init
     00000011  ___bank_spritesheet_0              spritesheet_0
     00000011  ___bank_spritesheet_13             spritesheet_13
     00000011  ___bank_spritesheet_16             spritesheet_16
     00000011  ___bank_spritesheet_4              spritesheet_4
     00000011  ___bank_spritesheet_9              spritesheet_9
     00000011  ___bank_tilemap_attr_1             tilemap_attr_1
ASxxxx Linker V03.00 + NoICE + sdld,  page 11.
Hexadecimal  [32-Bits]

Area                                    Addr        Size        Decimal Bytes (Attributes)
--------------------------------        ----        ----        ------- ----- ------------
.  .ABS.                            00000000    00000000 =           0. bytes (ABS,CON)

      Value  Global                              Global Defined In Module
      -----  --------------------------------   ------------------------
     00000011  ___bank_tilemap_attr_17            tilemap_attr_17
     00000011  ___bank_tilemap_attr_18            tilemap_attr_18
     00000011  ___bank_tilemap_attr_2             tilemap_attr_2
     00000011  ___bank_tilemap_attr_3             tilemap_attr_3
     00000011  ___bank_tilemap_attr_4             tilemap_attr_4
     00000011  ___bank_tilemap_attr_5             tilemap_attr_5
     00000011  ___bank_tileset_15                 tileset_15
     00000011  ___bank_tileset_16                 tileset_16
     00000011  ___bank_tileset_17                 tileset_17
     00000011  ___bank_tileset_21                 tileset_21
     00000011  ___bank_tileset_22                 tileset_22
     00000011  ___bank_tileset_23                 tileset_23
     00000011  ___bank_tileset_24                 tileset_24
     00000011  ___bank_tileset_25                 tileset_25
     00000011  ___bank_tileset_26                 tileset_26
     00000011  ___bank_tileset_30                 tileset_30
     00000011  ___bank_tileset_31                 tileset_31
     00000011  ___bank_tileset_32                 tileset_32
     00000011  ___bank_tileset_33                 tileset_33
     00000011  ___bank_tileset_34                 tileset_34
     00000011  ___bank_tileset_35                 tileset_35
     00000011  ___bank_tileset_36                 tileset_36
     00000011  ___bank_tileset_37                 tileset_37
     00000011  ___bank_tileset_38                 tileset_38
     00000011  ___bank_tileset_39                 tileset_39
     00000011  ___bank_tileset_40                 tileset_40
     00000011  ___bank_tileset_41                 tileset_41
     00000012  ___bank_background_13              background_13
     00000012  ___bank_background_14              background_14
     00000012  ___bank_background_15              background_15
     00000012  ___bank_background_16              background_16
     00000012  ___bank_background_17              background_17
     00000012  ___bank_background_18              background_18
     00000012  ___bank_background_19              background_19
     00000012  ___bank_background_2               background_2
     00000012  ___bank_background_20              background_20
     00000012  ___bank_background_21              background_21
     00000012  ___bank_background_22              background_22
     00000012  ___bank_background_23              background_23
     00000012  ___bank_background_24              background_24
     00000012  ___bank_background_25              background_25
     00000012  ___bank_background_26              background_26
     00000012  ___bank_background_27              background_27
     00000012  ___bank_background_28              background_28
     00000012  ___bank_background_29              background_29
     00000012  ___bank_background_3               background_3
     00000012  ___bank_background_30              background_30
     00000012  ___bank_background_31              background_31
     00000012  ___bank_background_32              background_32
     00000012  ___bank_background_33              background_33
     00000012  ___bank_background_34              background_34
ASxxxx Linker V03.00 + NoICE + sdld,  page 12.
Hexadecimal  [32-Bits]

Area                                    Addr        Size        Decimal Bytes (Attributes)
--------------------------------        ----        ----        ------- ----- ------------
.  .ABS.                            00000000    00000000 =           0. bytes (ABS,CON)

      Value  Global                              Global Defined In Module
      -----  --------------------------------   ------------------------
     00000012  ___bank_background_35              background_35
     00000012  ___bank_background_36              background_36
     00000012  ___bank_background_37              background_37
     00000012  ___bank_background_38              background_38
     00000012  ___bank_background_4               background_4
     00000012  ___bank_background_5               background_5
     00000012  ___bank_background_6               background_6
     00000012  ___bank_background_7               background_7
     00000012  ___bank_background_8               background_8
     00000012  ___bank_background_9               background_9
     00000012  ___bank_emote_0                    emote_0
     00000012  ___bank_palette_0                  palette_0
     00000012  ___bank_palette_1                  palette_1
     00000012  ___bank_palette_10                 palette_10
     00000012  ___bank_palette_11                 palette_11
     00000012  ___bank_palette_12                 palette_12
     00000012  ___bank_palette_13                 palette_13
     00000012  ___bank_palette_14                 palette_14
     00000012  ___bank_palette_15                 palette_15
     00000012  ___bank_palette_16                 palette_16
     00000012  ___bank_palette_17                 palette_17
     00000012  ___bank_palette_18                 palette_18
     00000012  ___bank_palette_19                 palette_19
     00000012  ___bank_palette_2                  palette_2
     00000012  ___bank_palette_20                 palette_20
     00000012  ___bank_palette_21                 palette_21
     00000012  ___bank_palette_22                 palette_22
     00000012  ___bank_palette_23                 palette_23
     00000012  ___bank_palette_24                 palette_24
     00000012  ___bank_palette_25                 palette_25
     00000012  ___bank_palette_26                 palette_26
     00000012  ___bank_palette_27                 palette_27
     00000012  ___bank_palette_28                 palette_28
     00000012  ___bank_palette_3                  palette_3
     00000012  ___bank_palette_4                  palette_4
     00000012  ___bank_palette_5                  palette_5
     00000012  ___bank_palette_6                  palette_6
     00000012  ___bank_palette_7                  palette_7
     00000012  ___bank_palette_8                  palette_8
     00000012  ___bank_palette_9                  palette_9
     00000012  ___bank_scene_0                    scene_0
     00000012  ___bank_scene_1                    scene_1
     00000012  ___bank_scene_10                   scene_10
     00000012  ___bank_scene_10_projectiles       scene_10_projectiles
     00000012  ___bank_scene_10_sprites           scene_10_sprites
     00000012  ___bank_scene_11                   scene_11
     00000012  ___bank_scene_12                   scene_12
     00000012  ___bank_scene_12_actors            scene_12_actors
     00000012  ___bank_scene_12_projectiles       scene_12_projectiles
     00000012  ___bank_scene_13                   scene_13
     00000012  ___bank_scene_14                   scene_14
ASxxxx Linker V03.00 + NoICE + sdld,  page 13.
Hexadecimal  [32-Bits]

Area                                    Addr        Size        Decimal Bytes (Attributes)
--------------------------------        ----        ----        ------- ----- ------------
.  .ABS.                            00000000    00000000 =           0. bytes (ABS,CON)

      Value  Global                              Global Defined In Module
      -----  --------------------------------   ------------------------
     00000012  ___bank_scene_15                   scene_15
     00000012  ___bank_scene_16                   scene_16
     00000012  ___bank_scene_16_projectiles       scene_16_projectiles
     00000012  ___bank_scene_16_triggers          scene_16_triggers
     00000012  ___bank_scene_17                   scene_17
     00000012  ___bank_scene_18                   scene_18
     00000012  ___bank_scene_18_actors            scene_18_actors
     00000012  ___bank_scene_18_projectiles       scene_18_projectiles
     00000012  ___bank_scene_18_sprites           scene_18_sprites
     00000012  ___bank_scene_18_triggers          scene_18_triggers
     00000012  ___bank_scene_19                   scene_19
     00000012  ___bank_scene_2                    scene_2
     00000012  ___bank_scene_20                   scene_20
     00000012  ___bank_scene_20_actors            scene_20_actors
     00000012  ___bank_scene_20_projectiles       scene_20_projectiles
     00000012  ___bank_scene_20_sprites           scene_20_sprites
     00000012  ___bank_scene_20_triggers          scene_20_triggers
     00000012  ___bank_scene_21                   scene_21
     00000012  ___bank_scene_22                   scene_22
     00000012  ___bank_scene_23                   scene_23
     00000012  ___bank_scene_24                   scene_24
     00000012  ___bank_scene_24_actors            scene_24_actors
     00000012  ___bank_scene_24_projectiles       scene_24_projectiles
     00000012  ___bank_scene_24_sprites           scene_24_sprites
     00000012  ___bank_scene_24_triggers          scene_24_triggers
     00000012  ___bank_scene_25                   scene_25
     00000012  ___bank_scene_26                   scene_26
     00000012  ___bank_scene_26_actors            scene_26_actors
     00000012  ___bank_scene_26_projectiles       scene_26_projectiles
     00000012  ___bank_scene_26_sprites           scene_26_sprites
     00000012  ___bank_scene_26_triggers          scene_26_triggers
     00000012  ___bank_scene_27                   scene_27
     00000012  ___bank_scene_28                   scene_28
     00000012  ___bank_scene_28_actors            scene_28_actors
     00000012  ___bank_scene_28_projectiles       scene_28_projectiles
     00000012  ___bank_scene_28_sprites           scene_28_sprites
     00000012  ___bank_scene_28_triggers          scene_28_triggers
     00000012  ___bank_scene_29                   scene_29
     00000012  ___bank_scene_2_actors             scene_2_actors
     00000012  ___bank_scene_3                    scene_3
     00000012  ___bank_scene_30                   scene_30
     00000012  ___bank_scene_31                   scene_31
     00000012  ___bank_scene_32                   scene_32
     00000012  ___bank_scene_32_actors            scene_32_actors
     00000012  ___bank_scene_32_projectiles       scene_32_projectiles
     00000012  ___bank_scene_32_sprites           scene_32_sprites
     00000012  ___bank_scene_32_triggers          scene_32_triggers
     00000012  ___bank_scene_33                   scene_33
     00000012  ___bank_scene_34                   scene_34
     00000012  ___bank_scene_34_actors            scene_34_actors
     00000012  ___bank_scene_34_projectiles       scene_34_projectiles
ASxxxx Linker V03.00 + NoICE + sdld,  page 14.
Hexadecimal  [32-Bits]

Area                                    Addr        Size        Decimal Bytes (Attributes)
--------------------------------        ----        ----        ------- ----- ------------
.  .ABS.                            00000000    00000000 =           0. bytes (ABS,CON)

      Value  Global                              Global Defined In Module
      -----  --------------------------------   ------------------------
     00000012  ___bank_scene_34_sprites           scene_34_sprites
     00000012  ___bank_scene_34_triggers          scene_34_triggers
     00000012  ___bank_scene_35                   scene_35
     00000012  ___bank_scene_36                   scene_36
     00000012  ___bank_scene_36_actors            scene_36_actors
     00000012  ___bank_scene_36_projectiles       scene_36_projectiles
     00000012  ___bank_scene_36_sprites           scene_36_sprites
     00000012  ___bank_scene_36_triggers          scene_36_triggers
     00000012  ___bank_scene_37                   scene_37
     00000012  ___bank_scene_38                   scene_38
     00000012  ___bank_scene_39                   scene_39
     00000012  ___bank_scene_39_actors            scene_39_actors
     00000012  ___bank_scene_3_actors             scene_3_actors
     00000012  ___bank_scene_4                    scene_4
     00000012  ___bank_scene_40                   scene_40
     00000012  ___bank_scene_40_actors            scene_40_actors
     00000012  ___bank_scene_41                   scene_41
     00000012  ___bank_scene_41_actors            scene_41_actors
     00000012  ___bank_scene_42                   scene_42
     00000012  ___bank_scene_5                    scene_5
     00000012  ___bank_scene_6                    scene_6
     00000012  ___bank_scene_6_actors             scene_6_actors
     00000012  ___bank_scene_7                    scene_7
     00000012  ___bank_scene_8                    scene_8
     00000012  ___bank_scene_8_projectiles        scene_8_projectiles
     00000012  ___bank_scene_8_triggers           scene_8_triggers
     00000012  ___bank_scene_9                    scene_9
     00000012  ___bank_script_engine_init         
     00000012  ___bank_script_input_1             script_input_1
     00000012  ___bank_script_s10a1_update        script_s10a1_update
     00000012  ___bank_script_s12a0_update        script_s12a0_update
     00000012  ___bank_script_s16a0_update        script_s16a0_update
     00000012  ___bank_script_s18a0_update        script_s18a0_update
     00000012  ___bank_script_s20a0_update        script_s20a0_update
     00000012  ___bank_script_s24a0_update        script_s24a0_update
     00000012  ___bank_script_s26a0_update        script_s26a0_update
     00000012  ___bank_script_s28a0_update        script_s28a0_update
     00000012  ___bank_script_s2_init             script_s2_init
     00000012  ___bank_script_s2a0_update         script_s2a0_update
     00000012  ___bank_script_s32a0_update        script_s32a0_update
     00000012  ___bank_script_s34a0_update        script_s34a0_update
     00000012  ___bank_script_s36a0_update        script_s36a0_update
     00000012  ___bank_script_s39_init            script_s39_init
     00000012  ___bank_script_s3_init             script_s3_init
     00000012  ___bank_script_s40_init            script_s40_init
     00000012  ___bank_script_s41_init            script_s41_init
     00000012  ___bank_script_s42_init            script_s42_init
     00000012  ___bank_script_s4_init             script_s4_init
     00000012  ___bank_script_s5_init             script_s5_init
     00000012  ___bank_script_s6_init             script_s6_init
     00000012  ___bank_script_s8a0_update         script_s8a0_update
ASxxxx Linker V03.00 + NoICE + sdld,  page 15.
Hexadecimal  [32-Bits]

Area                                    Addr        Size        Decimal Bytes (Attributes)
--------------------------------        ----        ----        ------- ----- ------------
.  .ABS.                            00000000    00000000 =           0. bytes (ABS,CON)

      Value  Global                              Global Defined In Module
      -----  --------------------------------   ------------------------
     00000012  ___bank_script_s8a10_update        script_s8a10_update
     00000012  ___bank_script_s8a12_update        script_s8a12_update
     00000012  ___bank_script_s8a14_update        script_s8a14_update
     00000012  ___bank_script_s8a17_update        script_s8a17_update
     00000012  ___bank_script_s8a18_update        script_s8a18_update
     00000012  ___bank_script_s8a19_update        script_s8a19_update
     00000012  ___bank_script_s8a1_update         script_s8a1_update
     00000012  ___bank_script_s8a3_update         script_s8a3_update
     00000012  ___bank_script_s8a6_update         script_s8a6_update
     00000012  ___bank_script_s8a7_update         script_s8a7_update
     00000012  ___bank_script_s8a9_update         script_s8a9_update
     00000012  ___bank_spritesheet_1              spritesheet_1
     00000012  ___bank_spritesheet_10             spritesheet_10
     00000012  ___bank_spritesheet_12             spritesheet_12
     00000012  ___bank_spritesheet_14             spritesheet_14
     00000012  ___bank_spritesheet_17             spritesheet_17
     00000012  ___bank_spritesheet_18             spritesheet_18
     00000012  ___bank_spritesheet_19             spritesheet_19
     00000012  ___bank_spritesheet_2              spritesheet_2
     00000012  ___bank_spritesheet_20             spritesheet_20
     00000012  ___bank_spritesheet_21             spritesheet_21
     00000012  ___bank_spritesheet_22             spritesheet_22
     00000012  ___bank_spritesheet_23             spritesheet_23
     00000012  ___bank_spritesheet_24             spritesheet_24
     00000012  ___bank_spritesheet_25             spritesheet_25
     00000012  ___bank_spritesheet_26             spritesheet_26
     00000012  ___bank_spritesheet_27             spritesheet_27
     00000012  ___bank_spritesheet_3              spritesheet_3
     00000012  ___bank_spritesheet_5              spritesheet_5
     00000012  ___bank_spritesheet_6              spritesheet_6
     00000012  ___bank_spritesheet_8              spritesheet_8
     00000012  ___bank_spritesheet_none           spritesheet_none
     00000012  ___bank_tileset_14                 tileset_14
     00000012  ___bank_tileset_19                 tileset_19
     0000001C  __start_save                    
     0000002D  l__GSINIT                       
     00000030  l__HEADER6                      
     0000004E  l__HEADER4                      
     00000082  l__HEADER10                     
     000001CB  l__CRASH_SCRATCH2               
     00000200  s__CODE                         
     00000C03  l__CODE                         
     00000E03  s__HOME                         
     000018FB  l__DATA                         
     00002000  _rROMB0                            
     000027A6  l__HOME                         
     0000296D  l__CODE_4                       
     000029A6  l__CODE_1                       
     000029B1  l__CODE_18                      
     00002ADB  l__CODE_3                       
     00003000  _rROMB1                            
ASxxxx Linker V03.00 + NoICE + sdld,  page 16.
Hexadecimal  [32-Bits]

Area                                    Addr        Size        Decimal Bytes (Attributes)
--------------------------------        ----        ----        ------- ----- ------------
.  .ABS.                            00000000    00000000 =           0. bytes (ABS,CON)

      Value  Global                              Global Defined In Module
      -----  --------------------------------   ------------------------
     000035A9  s__BASE                         
     000035A9  s__CODE_0                       
     000035A9  s__INITIALIZER                  
     000035A9  s__LIT                          
     000035B7  s__GSINIT                       
     000035E4  s__GSFINAL                      
     0000395A  l__CODE_2                       
     00003FFE  l__CODE_5                       
     00003FFE  l__CODE_6                       
     00003FFF  l__CODE_10                      
     00003FFF  l__CODE_13                      
     00003FFF  l__CODE_7                       
     00003FFF  l__CODE_8                       
     00004000  _RTC_SELECT_REG                    vm_rtc
     00004000  _rRAMB                             
     00004000  l__CODE_11                      
     00004000  l__CODE_12                      
     00004000  l__CODE_14                      
     00004000  l__CODE_15                      
     00004000  l__CODE_16                      
     00004000  l__CODE_17                      
     00004000  l__CODE_9                       
     00006000  _RTC_LATCH_REG                     vm_rtc
     00008000  __VRAM                             
     00008000  __VRAM8000                         
     00008800  __VRAM8800                         
     00009000  __VRAM9000                         
     00009800  __SCRN0                            
     00009C00  __SCRN1                            
     0000A000  _RTC_VALUE_REG                     vm_rtc
     0000A000  __SRAM                             
     0000C000  __RAM                              
     0000C000  _shadow_OAM                     
     0000C0A0  s__DATA                         
     0000D000  __RAMBANK                          
     0000D99B  s__BSS                          
     0000D99B  s__INITIALIZED                  
     0000D9A9  s__HEAP                         
     0000DF00  .STACK                          
     0000DF00  _shadow_OAM2                       absolute
     0000DFA0  _BkgPalette                        absolute
     0000DFE0  _vwf_tile_data                     absolute
     0000FE00  __OAMRAM                           
     0000FF00  _P1_REG                            
     0000FF00  __IO                               
     0000FF01  _SB_REG                            
     0000FF02  _SC_REG                            
     0000FF04  _DIV_REG                           
     0000FF05  _TIMA_REG                          
     0000FF06  _TMA_REG                           
     0000FF07  _TAC_REG                           
ASxxxx Linker V03.00 + NoICE + sdld,  page 17.
Hexadecimal  [32-Bits]

Area                                    Addr        Size        Decimal Bytes (Attributes)
--------------------------------        ----        ----        ------- ----- ------------
.  .ABS.                            00000000    00000000 =           0. bytes (ABS,CON)

      Value  Global                              Global Defined In Module
      -----  --------------------------------   ------------------------
     0000FF0F  _IF_REG                            
     0000FF10  _NR10_REG                          
     0000FF11  _NR11_REG                          
     0000FF12  _NR12_REG                          
     0000FF13  _NR13_REG                          
     0000FF14  _NR14_REG                          
     0000FF16  _NR21_REG                          
     0000FF17  _NR22_REG                          
     0000FF18  _NR23_REG                          
     0000FF19  _NR24_REG                          
     0000FF1A  _NR30_REG                          
     0000FF1B  _NR31_REG                          
     0000FF1C  _NR32_REG                          
     0000FF1D  _NR33_REG                          
     0000FF1E  _NR34_REG                          
     0000FF20  _NR41_REG                          
     0000FF21  _NR42_REG                          
     0000FF22  _NR43_REG                          
     0000FF23  _NR44_REG                          
     0000FF24  _NR50_REG                          
     0000FF25  _NR51_REG                          
     0000FF26  _NR52_REG                          
     0000FF30  _PCM_SAMPLE                        
     0000FF30  __AUD3WAVERAM                      
     0000FF40  _LCDC_REG                          
     0000FF41  _STAT_REG                          
     0000FF42  _SCY_REG                           
     0000FF43  _SCX_REG                           
     0000FF44  _LY_REG                            
     0000FF45  _LYC_REG                           
     0000FF46  _DMA_REG                           
     0000FF47  _BGP_REG                           
     0000FF48  _OBP0_REG                          
     0000FF49  _OBP1_REG                          
     0000FF4A  _WY_REG                            
     0000FF4B  _WX_REG                            
     0000FF4D  _KEY1_REG                          
     0000FF4F  _VBK_REG                           
     0000FF51  _HDMA1_REG                         
     0000FF52  _HDMA2_REG                         
     0000FF53  _HDMA3_REG                         
     0000FF54  _HDMA4_REG                         
     0000FF55  _HDMA5_REG                         
     0000FF56  _RP_REG                            
     0000FF68  _BCPS_REG                          
     0000FF69  _BCPD_REG                          
     0000FF6A  _OCPS_REG                          
     0000FF6B  _OCPD_REG                          
     0000FF70  _SVBK_REG                          
     0000FF76  _PCM12_REG                         
     0000FF77  _PCM34_REG                         
ASxxxx Linker V03.00 + NoICE + sdld,  page 18.
Hexadecimal  [32-Bits]

Area                                    Addr        Size        Decimal Bytes (Attributes)
--------------------------------        ----        ----        ------- ----- ------------
.  .ABS.                            00000000    00000000 =           0. bytes (ABS,CON)

      Value  Global                              Global Defined In Module
      -----  --------------------------------   ------------------------
     0000FF80  .refresh_OAM                    
     0000FF80  __HRAM                             
     0000FFFF  _IE_REG                            
     00014000  s__CODE_1                       
     00024000  s__CODE_2                       
     00034000  s__CODE_3                       
     00044000  s__CODE_4                       
     00054000  s__CODE_5                       
     00064000  s__CODE_6                       
     00074000  s__CODE_7                       
     00084000  s__CODE_8                       
     00094000  s__CODE_9                       
     000A4000  s__CODE_10                      
     000B4000  s__CODE_11                      
     000C4000  s__CODE_12                      
     000D4000  s__CODE_13                      
     000E4000  s__CODE_14                      
     000F4000  s__CODE_15                      
     00104000  s__CODE_16                      
     00114000  s__CODE_17                      
     00124000  s__CODE_18                      

ASxxxx Linker V03.00 + NoICE + sdld,  page 19.
Hexadecimal  [32-Bits]

Area                                    Addr        Size        Decimal Bytes (Attributes)
--------------------------------        ----        ----        ------- ----- ------------
_CODE                               00000200    00000C03 =        3075. bytes (REL,CON)

      Value  Global                              Global Defined In Module
      -----  --------------------------------   ------------------------
     00000200  ___HandleCrash                     
     0000020A  _SIO_send_byte                     
     0000021D  _SIO_receive                       
     0000022E  _hide_hardware_sprites             OAM_utils
     0000025A  _SetTile                           
     00000269  _set_win_tile_xy                   
     0000026E  _set_bkg_tile_xy                   
     00000291  _GetWinAddr                        
     00000299  _GetBkgAddr                        
     000002A7  _state_init                        
     000002AC  _state_update                      
     000002CE  _ui_time_masks                     
     000002D6  _ui_print_shift_char               
     00000359  _ui_draw_frame_row                 
     00000362  .ui_draw_frame_row                 
     0000038B  _script_cmds                       vm_instructions
     00000529  _start_scene_x                     
     0000052B  _start_scene_y                     
     0000052D  _start_scene_dir                   
     0000052E  _start_scene                       
     00000531  _start_player_move_speed           
     00000532  _start_player_anim_tick            
     00000533  _ui_fonts                          
     00000536  _core_reset_hook                   main
     0000053E  _main                              main
     00000546  _state_start_fns                   
     00000558  _state_update_fns                  
     0000056A  _hUGE_init_banked                  hUGEDriver_obj
     0000056E  _hUGE_init                         hUGEDriver_obj
     00000579  _hUGE_mute_channel_banked          hUGEDriver_obj
     0000057D  _hUGE_mute_channel                 hUGEDriver_obj
     0000058A  hUGE_mute_channel                  hUGEDriver_obj
     000005A4  _hUGE_set_position_banked          hUGEDriver_obj
     000005A8  _hUGE_set_position                 hUGEDriver_obj
     000005B1  hUGE_init                          hUGEDriver_obj
     0000081E  hUGE_set_position                  hUGEDriver_obj
     000009BC  _hUGE_dosound                      hUGEDriver_obj
     000009BC  _hUGE_dosound_banked               hUGEDriver_obj
     00000CD0  _set_sprite_palette                CGB
     00000CD5  _set_bkg_palette                   CGB
     00000CD8  .set_palette                       CGB
     00000CF7  _set_sprite_palette_entry          CGB
     00000CFC  _set_bkg_palette_entry             CGB
     00000CFF  .set_palette_entry                 CGB
     00000D1B  .sgb_check                         
     00000D1B  _sgb_check                         
     00000D63  _sgb_transfer                      
     00000D68  .sgb_transfer                      
     00000DA9  ___move_metasprite                 Metasprites
     00000DE1  _cpu_slow                          CGB
ASxxxx Linker V03.00 + NoICE + sdld,  page 20.
Hexadecimal  [32-Bits]

Area                                    Addr        Size        Decimal Bytes (Attributes)
--------------------------------        ----        ----        ------- ----- ------------
_CODE                               00000200    00000C03 =        3075. bytes (REL,CON)

      Value  Global                              Global Defined In Module
      -----  --------------------------------   ------------------------
     00000DFC  _cpu_fast                          CGB
ASxxxx Linker V03.00 + NoICE + sdld,  page 21.
Hexadecimal  [32-Bits]

Area                                    Addr        Size        Decimal Bytes (Attributes)
--------------------------------        ----        ----        ------- ----- ------------
_HEADER0                            00000000    00000001 =           1. bytes (ABS,CON)

      Value  Global                              Global Defined In Module
      -----  --------------------------------   ------------------------
     00000020  .call_hl                           Runtime

ASxxxx Linker V03.00 + NoICE + sdld,  page 22.
Hexadecimal  [32-Bits]

Area                                    Addr        Size        Decimal Bytes (Attributes)
--------------------------------        ----        ----        ------- ----- ------------
_HEADER1                            00000000    00000005 =           5. bytes (ABS,CON)

      Value  Global                              Global Defined In Module
      -----  --------------------------------   ------------------------
     00000028  .MemsetSmall                       Runtime

ASxxxx Linker V03.00 + NoICE + sdld,  page 23.
Hexadecimal  [32-Bits]

Area                                    Addr        Size        Decimal Bytes (Attributes)
--------------------------------        ----        ----        ------- ----- ------------
_HEADER2                            00000000    00000007 =           7. bytes (ABS,CON)

      Value  Global                              Global Defined In Module
      -----  --------------------------------   ------------------------
     00000030  .MemcpySmall                       Runtime

ASxxxx Linker V03.00 + NoICE + sdld,  page 24.
Hexadecimal  [32-Bits]

Area                                    Addr        Size        Decimal Bytes (Attributes)
--------------------------------        ----        ----        ------- ----- ------------
_HEADER3                            00000000    00000008 =           8. bytes (ABS,CON)

      Value  Global                              Global Defined In Module
      -----  --------------------------------   ------------------------
ASxxxx Linker V03.00 + NoICE + sdld,  page 25.
Hexadecimal  [32-Bits]

Area                                    Addr        Size        Decimal Bytes (Attributes)
--------------------------------        ----        ----        ------- ----- ------------
_HEADER4                            00000000    0000004E =          78. bytes (ABS,CON)

      Value  Global                              Global Defined In Module
      -----  --------------------------------   ------------------------
     00000080  .int                               Runtime
     0000008F  _wait_int_handler                  Runtime
     0000009C  __standard_VBL_handler             Runtime
     000000AC  _refresh_OAM                       Runtime

ASxxxx Linker V03.00 + NoICE + sdld,  page 26.
Hexadecimal  [32-Bits]

Area                                    Addr        Size        Decimal Bytes (Attributes)
--------------------------------        ----        ----        ------- ----- ------------
_HEADER5                            00000000    00000002 =           2. bytes (ABS,CON)

      Value  Global                              Global Defined In Module
      -----  --------------------------------   ------------------------
ASxxxx Linker V03.00 + NoICE + sdld,  page 27.
Hexadecimal  [32-Bits]

Area                                    Addr        Size        Decimal Bytes (Attributes)
--------------------------------        ----        ----        ------- ----- ------------
_HEADER6                            00000000    00000030 =          48. bytes (ABS,CON)

      Value  Global                              Global Defined In Module
      -----  --------------------------------   ------------------------
ASxxxx Linker V03.00 + NoICE + sdld,  page 28.
Hexadecimal  [32-Bits]

Area                                    Addr        Size        Decimal Bytes (Attributes)
--------------------------------        ----        ----        ------- ----- ------------
_HEADER7                            00000000    00000006 =           6. bytes (ABS,CON)

      Value  Global                              Global Defined In Module
      -----  --------------------------------   ------------------------
ASxxxx Linker V03.00 + NoICE + sdld,  page 29.
Hexadecimal  [32-Bits]

Area                                    Addr        Size        Decimal Bytes (Attributes)
--------------------------------        ----        ----        ------- ----- ------------
_HEADER8                            00000000    00000003 =           3. bytes (ABS,CON)

      Value  Global                              Global Defined In Module
      -----  --------------------------------   ------------------------
ASxxxx Linker V03.00 + NoICE + sdld,  page 30.
Hexadecimal  [32-Bits]

Area                                    Addr        Size        Decimal Bytes (Attributes)
--------------------------------        ----        ----        ------- ----- ------------
_HEADER9                            00000000    00000001 =           1. bytes (ABS,CON)

      Value  Global                              Global Defined In Module
      -----  --------------------------------   ------------------------
ASxxxx Linker V03.00 + NoICE + sdld,  page 31.
Hexadecimal  [32-Bits]

Area                                    Addr        Size        Decimal Bytes (Attributes)
--------------------------------        ----        ----        ------- ----- ------------
_HEADERa                            00000000    00000001 =           1. bytes (ABS,CON)

      Value  Global                              Global Defined In Module
      -----  --------------------------------   ------------------------
ASxxxx Linker V03.00 + NoICE + sdld,  page 32.
Hexadecimal  [32-Bits]

Area                                    Addr        Size        Decimal Bytes (Attributes)
--------------------------------        ----        ----        ------- ----- ------------
_HEADERb                            00000000    00000001 =           1. bytes (ABS,CON)

      Value  Global                              Global Defined In Module
      -----  --------------------------------   ------------------------
ASxxxx Linker V03.00 + NoICE + sdld,  page 33.
Hexadecimal  [32-Bits]

Area                                    Addr        Size        Decimal Bytes (Attributes)
--------------------------------        ----        ----        ------- ----- ------------
_HEADERc                            00000000    00000002 =           2. bytes (ABS,CON)

      Value  Global                              Global Defined In Module
      -----  --------------------------------   ------------------------
ASxxxx Linker V03.00 + NoICE + sdld,  page 34.
Hexadecimal  [32-Bits]

Area                                    Addr        Size        Decimal Bytes (Attributes)
--------------------------------        ----        ----        ------- ----- ------------
_HEADERd                            00000000    00000001 =           1. bytes (ABS,CON)

      Value  Global                              Global Defined In Module
      -----  --------------------------------   ------------------------
ASxxxx Linker V03.00 + NoICE + sdld,  page 35.
Hexadecimal  [32-Bits]

Area                                    Addr        Size        Decimal Bytes (Attributes)
--------------------------------        ----        ----        ------- ----- ------------
_HEADERe                            00000000    00000001 =           1. bytes (ABS,CON)

      Value  Global                              Global Defined In Module
      -----  --------------------------------   ------------------------
ASxxxx Linker V03.00 + NoICE + sdld,  page 36.
Hexadecimal  [32-Bits]

Area                                    Addr        Size        Decimal Bytes (Attributes)
--------------------------------        ----        ----        ------- ----- ------------
_HEADERf                            00000000    00000002 =           2. bytes (ABS,CON)

      Value  Global                              Global Defined In Module
      -----  --------------------------------   ------------------------
ASxxxx Linker V03.00 + NoICE + sdld,  page 37.
Hexadecimal  [32-Bits]

Area                                    Addr        Size        Decimal Bytes (Attributes)
--------------------------------        ----        ----        ------- ----- ------------
_HEADER10                           00000000    00000082 =         130. bytes (ABS,CON)

      Value  Global                              Global Defined In Module
      -----  --------------------------------   ------------------------
     00000150  .reset                             Runtime
     00000150  _reset                             Runtime
     00000157  .code_start                        Runtime
     000001B7  _exit                              Runtime
     000001BB  _set_interrupts                    Runtime

ASxxxx Linker V03.00 + NoICE + sdld,  page 38.
Hexadecimal  [32-Bits]

Area                                    Addr        Size        Decimal Bytes (Attributes)
--------------------------------        ----        ----        ------- ----- ------------
_HEADER11                           00000000    00000001 =           1. bytes (ABS,CON)

      Value  Global                              Global Defined In Module
      -----  --------------------------------   ------------------------
ASxxxx Linker V03.00 + NoICE + sdld,  page 39.
Hexadecimal  [32-Bits]

Area                                    Addr        Size        Decimal Bytes (Attributes)
--------------------------------        ----        ----        ------- ----- ------------
_HOME                               00000E03    000027A6 =       10150. bytes (REL,CON)

      Value  Global                              Global Defined In Module
      -----  --------------------------------   ------------------------
     00000E03  .memset_simple                     Runtime
     00000E0C  .memcpy_simple                     Runtime
     00000E29  .remove_VBL                        Runtime
     00000E2C  .remove_int                        Runtime
     00000E49  .add_VBL                           Runtime
     00000E4C  .add_int                           Runtime
     00000E57  .wait_vbl_done                     Runtime
     00000E57  _wait_vbl_done                     Runtime
     00000E67  .display_off                       Runtime
     00000E67  _display_off                       Runtime
     00000E7F  _remove_VBL                        Runtime
     00000E8A  _add_VBL                           Runtime
     00000E95  _actors_update                     actor
     00001208  _SetBankedBkgData                  bankdata
     00001224  _SetBankedSpriteData               bankdata
     00001240  _SetBankedBkgTiles                 bankdata
     0000125C  _SetBankedWinTiles                 bankdata
     00001278  _ReadBankedFarPtr                  bankdata
     0000129F  _ReadBankedUWORD                   bankdata
     000012BB  _MemcpyBanked                      bankdata
     000012D7  _MemcpyVRAMBanked                  bankdata
     000012F3  _camera_update                     camera
     00001426  _load_animations                   data_manager
     00001485  _events_update                     events
     00001555  _timers_update                     events
     000015DD  _input_update                      input
     0000160C  .sio_ISR                           
     00001666  .timer_ISR                         
     0000167B  _simple_LCD_isr                    interrupts
     000016C6  _fullscreen_LCD_isr                interrupts
     000016F7  _VBL_isr                           interrupts
     00001734  _isqrt                             math
     0000178A  _sine_wave                         math
     0000188A  _dir_lookup                        math
     00001892  _dir_angle_lookup                  math
     00001896  _hUGETrackerRoutine                music_manager
     000018C2  _music_events_update               music_manager
     00001944  _music_play                        music_manager
     000019C4  _music_mute                        music_manager
     000019EC  _music_update                      music_manager
     00001A4C  _sound_stop                        music_manager
     00001A7D  _parallax_LCD_isr                  parallax
     00001ABA  _projectiles_update                projectiles
     00001E73  _projectiles_render                projectiles
     00001FE6  _sample_play_isr                   sample_player
     00002065  _scroll_load_pending_row           scroll
     000020F1  _scroll_load_row                   scroll
     0000216B  _scroll_load_col                   scroll
     000021D6  _scroll_load_pending_col           scroll
     00002267  _set_bkg_submap                    
ASxxxx Linker V03.00 + NoICE + sdld,  page 40.
Hexadecimal  [32-Bits]

Area                                    Addr        Size        Decimal Bytes (Attributes)
--------------------------------        ----        ----        ------- ----- ------------
_HOME                               00000E03    000027A6 =       10150. bytes (REL,CON)

      Value  Global                              Global Defined In Module
      -----  --------------------------------   ------------------------
     000022AA  _set_xy_win_submap                 
     000022D3  .set_xy_win_submap                 
     000022DC  .set_xy_bkg_submap                 
     000022EB  .set_xy_submap                     
     00002331  _on_SIO_receive                    sio
     00002372  _SIO_update                        sio
     000023D9  _ui_update                         ui
     00002499  _vm_sgb_transfer                   vm_sgb
     000024E7  _vm_load_text                      vm_ui
     0000273C  _vm_beginthread                    vm
     00002861  _vm_rpn                            vm
     00002F25  _vm_call_native                    vm
     00002F2F  _VM_STEP                           vm
     00002F99  _script_runner_update              vm
     00003113  _fill_win_rect                     
     00003125  _rand                              
     00003125  _randw                             
     00003150  _initrand                          
     00003152  .initrand                          
     0000315B  __mulsuchar                        mul
     00003165  __muluschar                        mul
     0000316F  __mulschar                         mul
     00003181  __muluchar                         mul
     0000318D  __mulint                           mul
     000031B3  _abs                               abs
     000031C2  _set_win_tiles                     
     000031D6  _set_tile_data                     
     000031DB  _set_bkg_data                      
     000031DB  _set_win_data                      
     000031E3  _set_sprite_data                   
     00003213  _reverse                           reverse
     00003247  ___call__banked                    far_ptr
     00003264  _to_far_ptr                        far_ptr
     0000329D  _add_LCD                           
     000032A8  .add_LCD                           
     000032AE  _remove_LCD                        
     000032B9  .remove_LCD                        
     000032BF  .fill_rect_wtt                     
     000032C8  .fill_rect_btt                     
     00003315  .copy_vram                         
     00003329  _get_data                          
     00003329  _set_data                          
     00003329  _vmemcpy                           
     0000333C  _fill_bkg_rect                     
     0000334E  .padup                             
     0000334E  _waitpadup                         
     0000335E  .jpad                              
     0000335E  _joypad                            
     00003386  _waitpad                           
     00003389  .wait_pad                          
     00003390  ___sdcc_call_hl                    call_hl
ASxxxx Linker V03.00 + NoICE + sdld,  page 41.
Hexadecimal  [32-Bits]

Area                                    Addr        Size        Decimal Bytes (Attributes)
--------------------------------        ----        ----        ------- ----- ------------
_HOME                               00000E03    000027A6 =       10150. bytes (REL,CON)

      Value  Global                              Global Defined In Module
      -----  --------------------------------   ------------------------
     00003391  ___memcpy                          memcpy
     00003391  _memcpy                            memcpy
     000033D4  _memset                            memset
     00003407  ___sdcc_bcall_ehl                  
     00003418  __divsuchar                        div
     00003425  __modsuchar                        div
     0000342F  __divuschar                        div
     00003441  __moduschar                        div
     00003451  __divschar                         div
     0000345D  __modschar                         div
     00003467  __divsint                          div
     00003478  __modsint                          div
     00003487  __divuchar                         div
     00003493  __moduchar                         div
     0000349D  __divuint                          div
     000034AE  __moduint                          div
     000034BD  .div8                              div
     000034BD  .mod8                              div
     000034C5  .div16                             div
     000034C5  .mod16                             div
     000034FB  .divu8                             div
     000034FB  .modu8                             div
     000034FE  .divu16                            div
     000034FE  .modu16                            div
     0000353F  _set_bkg_tiles                     
     00003553  .set_xy_wtt                        
     0000355C  .set_xy_btt                        
     0000356B  .set_xy_tt                         
ASxxxx Linker V03.00 + NoICE + sdld,  page 42.
Hexadecimal  [32-Bits]

Area                                    Addr        Size        Decimal Bytes (Attributes)
--------------------------------        ----        ----        ------- ----- ------------
_INITIALIZER                        000035A9    0000000E =          14. bytes (REL,CON)

      Value  Global                              Global Defined In Module
      -----  --------------------------------   ------------------------
ASxxxx Linker V03.00 + NoICE + sdld,  page 43.
Hexadecimal  [32-Bits]

Area                                    Addr        Size        Decimal Bytes (Attributes)
--------------------------------        ----        ----        ------- ----- ------------
_GSINIT                             000035B7    0000002D =          45. bytes (REL,CON)

      Value  Global                              Global Defined In Module
      -----  --------------------------------   ------------------------
     000035B7  gsinit                             Runtime

ASxxxx Linker V03.00 + NoICE + sdld,  page 44.
Hexadecimal  [32-Bits]

Area                                    Addr        Size        Decimal Bytes (Attributes)
--------------------------------        ----        ----        ------- ----- ------------
_GSFINAL                            000035E4    00000001 =           1. bytes (REL,CON)

      Value  Global                              Global Defined In Module
      -----  --------------------------------   ------------------------
ASxxxx Linker V03.00 + NoICE + sdld,  page 45.
Hexadecimal  [32-Bits]

Area                                    Addr        Size        Decimal Bytes (Attributes)
--------------------------------        ----        ----        ------- ----- ------------
_DATA                               0000C0A0    000018FB =        6395. bytes (REL,CON)

      Value  Global                              Global Defined In Module
      -----  --------------------------------   ------------------------
     0000C0A0  __cpu                              Runtime
     0000C0A1  __is_GBA                           Runtime
     0000C0A2  .mode                              Runtime
     0000C0A3  .sys_time                          Runtime
     0000C0A3  _sys_time                          Runtime
     0000C0A5  .int_0x40                          Runtime
     0000C0B9  _actors                            actor
     0000C4D3  _actors_active_head                actor
     0000C4D5  _actors_inactive_head              actor
     0000C4D7  _screen_x                          actor
     0000C4D8  _screen_y                          actor
     0000C4D9  _invalid                           actor
     0000C4DB  _player_moving                     actor
     0000C4DC  _player_iframes                    actor
     0000C4DD  _player_collision_actor            actor
     0000C4DF  _emote_actor                       actor
     0000C4E1  _emote_timer                       actor
     0000C4E2  _allocated_hardware_sprites        actor
     0000C4EA  _camera_x                          camera
     0000C4EC  _camera_y                          camera
     0000C4EE  _camera_offset_x                   camera
     0000C4EF  _camera_offset_y                   camera
     0000C4F0  _camera_deadzone_x                 camera
     0000C4F1  _camera_deadzone_y                 camera
     0000C4F2  _camera_settings                   camera
     0000C4F6  _current_scene                     data_manager
     0000C4F9  _image_bank                        data_manager
     0000C4FA  _image_ptr                         data_manager
     0000C4FC  _image_attr_bank                   data_manager
     0000C4FD  _image_attr_ptr                    data_manager
     0000C4FF  _collision_bank                    data_manager
     0000C500  _collision_ptr                     data_manager
     0000C502  _image_tile_width                  data_manager
     0000C503  _image_tile_height                 data_manager
     0000C504  _image_width                       data_manager
     0000C506  _image_height                      data_manager
     0000C508  _sprites_len                       data_manager
     0000C509  _actors_len                        data_manager
     0000C50A  _projectiles_len                   data_manager
     0000C50B  _player_sprite_len                 data_manager
     0000C50C  _scene_type                        data_manager
     0000C50D  _scene_LCD_type                    data_manager
     0000C50E  _scene_stack                       data_manager
     0000C54E  _scene_stack_ptr                   data_manager
     0000C553  _input_events                      events
     0000C57B  _input_slots                       events
     0000C583  _timer_events                      events
     0000C597  _timer_values                      events
     0000C59F  _fade_running                      fade_manager
     0000C5A0  _fade_frames_per_step              fade_manager
ASxxxx Linker V03.00 + NoICE + sdld,  page 46.
Hexadecimal  [32-Bits]

Area                                    Addr        Size        Decimal Bytes (Attributes)
--------------------------------        ----        ----        ------- ----- ------------
_DATA                               0000C0A0    000018FB =        6395. bytes (REL,CON)

      Value  Global                              Global Defined In Module
      -----  --------------------------------   ------------------------
     0000C5A1  _fade_timer                        fade_manager
     0000C5A4  _joypads                           input
     0000C5A9  _frame_joy                         input
     0000C5AA  _last_joy                          input
     0000C5AB  _recent_joy                        input
     0000C5AC  _SIO_status                        
     0000C5AD  _link_byte_sent                    
     0000C5AE  _link_next_mode                    
     0000C5AF  _save_blob_size                    load_save
     0000C5B1  _current_track                     music_manager
     0000C5B3  _tone_frames                       music_manager
     0000C5B4  _channel_mask                      music_manager
     0000C5B5  _sound_channel                     music_manager
     0000C5B6  _current_track_bank                music_manager
     0000C5B7  _music_stopped                     music_manager
     0000C5B8  _huge_initialized                  music_manager
     0000C5B9  _routine_queue                     music_manager
     0000C5BD  _routine_queue_head                music_manager
     0000C5BE  _routine_queue_tail                music_manager
     0000C5BF  _music_events                      music_manager
     0000C5D3  _DMG_palette                       palette
     0000C5D6  _SprPalette                        palette
     0000C616  _parallax_rows                     parallax
     0000C628  _parallax_row                      parallax
     0000C62A  _projectiles                       projectiles
     0000C6E3  _projectile_defs                   projectiles
     0000C756  _projectiles_active_head           projectiles
     0000C758  _projectiles_inactive_head         projectiles
     0000C75F  _scroll_x                          scroll
     0000C761  _scroll_y                          scroll
     0000C763  _draw_scroll_x                     scroll
     0000C765  _draw_scroll_y                     scroll
     0000C767  _scroll_x_max                      scroll
     0000C769  _scroll_y_max                      scroll
     0000C76B  _scroll_offset_x                   scroll
     0000C76C  _scroll_offset_y                   scroll
     0000C76D  _pending_h_x                       scroll
     0000C76E  _pending_h_y                       scroll
     0000C76F  _pending_h_i                       scroll
     0000C770  _pending_w_x                       scroll
     0000C771  _pending_w_y                       scroll
     0000C772  _pending_w_i                       scroll
     0000C773  _current_row                       scroll
     0000C775  _new_row                           scroll
     0000C777  _current_col                       scroll
     0000C779  _new_col                           scroll
     0000C77B  .image_tile_width                  
     0000C77C  _link_operation_mode               sio
     0000C77D  _link_packet                       sio
     0000C79D  _link_packet_len                   sio
     0000C79E  _link_packet_ptr                   sio
ASxxxx Linker V03.00 + NoICE + sdld,  page 47.
Hexadecimal  [32-Bits]

Area                                    Addr        Size        Decimal Bytes (Attributes)
--------------------------------        ----        ----        ------- ----- ------------
_DATA                               0000C0A0    000018FB =        6395. bytes (REL,CON)

      Value  Global                              Global Defined In Module
      -----  --------------------------------   ------------------------
     0000C7A0  _link_packet_received              sio
     0000C7A1  _link_packet_snd_len               sio
     0000C7A2  _link_packet_snd_ptr               sio
     0000C7A4  _link_packet_sent                  sio
     0000C7A5  __is_CGB                           system
     0000C7A6  __is_SGB                           system
     0000C7A7  _triggers                          trigger
     0000C89F  _last_trigger_tx                   trigger
     0000C8A0  _last_trigger_ty                   trigger
     0000C8A1  _last_trigger                      trigger
     0000C8A2  _win_pos_x                         ui
     0000C8A3  _win_dest_pos_x                    ui
     0000C8A4  _win_pos_y                         ui
     0000C8A5  _win_dest_pos_y                    ui
     0000C8A6  _win_speed                         ui
     0000C8A7  _text_drawn                        ui
     0000C8A8  _current_text_speed                ui
     0000C8A9  _text_wait                         ui
     0000C8AA  _text_in_speed                     ui
     0000C8AB  _text_out_speed                    ui
     0000C8AC  _text_draw_speed                   ui
     0000C8AD  _text_ff_joypad                    ui
     0000C8AE  _text_ff                           ui
     0000C8AF  _text_bkg_fill                     ui
     0000C8B0  _ui_text_data                      ui
     0000C9BA  _vwf_current_mask                  ui
     0000C9BB  _vwf_current_rotate                ui
     0000C9BC  _vwf_inverse_map                   ui
     0000C9BD  _vwf_direction                     ui
     0000C9BE  _vwf_current_font_desc             ui
     0000C9C6  _vwf_current_font_bank             ui
     0000C9C7  _vwf_current_font_idx              ui
     0000C9C8  _text_render_base_addr             ui
     0000C9CA  _text_scroll_addr                  ui
     0000C9CC  _text_scroll_width                 ui
     0000C9CD  _text_scroll_height                ui
     0000C9CE  _text_scroll_fill                  ui
     0000C9D4  __itoa_fmt_len                     vm_ui_a
     0000C9D5  .itoa_fmt_buf                      vm_ui_a
     0000C9D8  _CTXS                              vm
     0000CB08  _first_ctx                         vm
     0000CB0A  _free_ctxs                         vm
     0000CB0C  _vm_lock_state                     vm
     0000CB0D  _vm_loaded_state                   vm
     0000CB0E  _vm_exception_code                 vm
     0000CB0F  _vm_exception_params_length        vm
     0000CB10  _vm_exception_params_bank          vm
     0000CB11  _vm_exception_params_offset        vm
     0000CB13  _script_memory                     vm
     0000D91B  _grounded                          platform
     0000D91C  _on_ladder                         platform
ASxxxx Linker V03.00 + NoICE + sdld,  page 48.
Hexadecimal  [32-Bits]

Area                                    Addr        Size        Decimal Bytes (Attributes)
--------------------------------        ----        ----        ------- ----- ------------
_DATA                               0000C0A0    000018FB =        6395. bytes (REL,CON)

      Value  Global                              Global Defined In Module
      -----  --------------------------------   ------------------------
     0000D91D  _pl_vel_x                          platform
     0000D91F  _pl_vel_y                          platform
     0000D921  _plat_min_vel                      platform
     0000D923  _plat_walk_vel                     platform
     0000D925  _plat_climb_vel                    platform
     0000D927  _plat_run_vel                      platform
     0000D929  _plat_walk_acc                     platform
     0000D92B  _plat_run_acc                      platform
     0000D92D  _plat_dec                          platform
     0000D92F  _plat_jump_vel                     platform
     0000D931  _plat_grav                         platform
     0000D933  _plat_hold_grav                    platform
     0000D935  _plat_max_fall_vel                 platform
     0000D937  _shooter_reached_end               shmup
     0000D938  _shooter_dest                      shmup
     0000D93A  _shooter_direction                 shmup
     0000D93B  _topdown_grid                      topdown
     0000D961  __current_ch3_wave                 hUGEDriver_obj
     0000D961  _hUGE_current_wave                 hUGEDriver_obj
     0000D982  .randhi                            
     0000D983  .randlo                            
     0000D984  ___call_banked_addr                far_ptr
     0000D984  ___call_banked_ptr                 far_ptr
     0000D986  ___call_banked_bank                far_ptr
     0000D988  .int_0x48                          
     0000D998  ___current_metasprite              Metasprites
     0000D99A  ___current_base_tile               Metasprites

ASxxxx Linker V03.00 + NoICE + sdld,  page 49.
Hexadecimal  [32-Bits]

Area                                    Addr        Size        Decimal Bytes (Attributes)
--------------------------------        ----        ----        ------- ----- ------------
_INITIALIZED                        0000D99B    0000000E =          14. bytes (REL,CON)

      Value  Global                              Global Defined In Module
      -----  --------------------------------   ------------------------
     0000D99B  _fade_style                        fade_manager
     0000D99C  _game_time                         game_time
     0000D99D  _hide_sprites                      interrupts
     0000D99E  _ISR_counter                       music_manager
     0000D99F  _play_bank                         sample_player
     0000D9A0  _play_sample                       sample_player
     0000D9A2  _play_length                       sample_player
     0000D9A4  _triggers_len                      trigger
     0000D9A5  _exchange_state                    vm_sio
     0000D9A6  _last_hit_trigger                  pointnclick
     0000D9A7  _shooter_scroll_speed              shmup
     0000D9A8  ___render_shadow_OAM               Metasprites
ASxxxx Linker V03.00 + NoICE + sdld,  page 50.
Hexadecimal  [32-Bits]

Area                                    Addr        Size        Decimal Bytes (Attributes)
--------------------------------        ----        ----        ------- ----- ------------
_HRAM12                             00000000    00000003 =           3. bytes (ABS,CON)

      Value  Global                              Global Defined In Module
      -----  --------------------------------   ------------------------
     0000FF90  __current_bank                     Runtime
     0000FF92  __shadow_OAM_base                  Runtime

ASxxxx Linker V03.00 + NoICE + sdld,  page 51.
Hexadecimal  [32-Bits]

Area                                    Addr        Size        Decimal Bytes (Attributes)
--------------------------------        ----        ----        ------- ----- ------------
_CODE_1                             00014000    000029A6 =       10662. bytes (REL,CON)

      Value  Global                              Global Defined In Module
      -----  --------------------------------   ------------------------
     00014000  _actors_init                       actor
     00014034  _emote_offsets                     actor
     00014043  _emote_metasprite                  actor
     0001404F  _player_init                       actor
     00014062  _deactivate_actor                  actor
     00014169  _activate_actor                    actor
     00014294  _activate_actors_in_row            actor
     0001438B  _activate_actors_in_col            actor
     000144DC  _actor_set_frames                  actor
     00014530  _actor_set_frame_offset            actor
     0001456D  _actor_get_frame_offset            actor
     00014580  _actor_set_anim_idle               actor
     000145AE  _actor_set_anim_moving             actor
     000145DF  _actor_set_dir                     actor
     00014644  _actor_at_tile                     actor
     00014719  _actor_in_front_of_player          actor
     00014800  _actor_overlapping_player          actor
     00014A98  _actor_overlapping_bb              actor
     00014CB6  _actors_handle_player_collision    actor
     00014D41  _check_collision_in_direction      actor
     00015480  _camera_init                       camera
     0001549E  _camera_reset                      camera
     000154AE  _remove_LCD_ISRs                   interrupts
     000154CF  _parallax_init                     parallax
     000154F3  _scroll_init                       scroll
     0001551D  _scroll_reset                      scroll
     0001553D  _scroll_update                     scroll
     00015654  _scroll_viewport                   scroll
     00015AE8  _scroll_repaint                    scroll
     00015B46  _scroll_render_rows                scroll
     00015BCE  _scroll_queue_row                  scroll
     00015BF3  _scroll_queue_col                  scroll
     00015C3F  _ui_swap_tiles                     
     00015C89  _ui_print_make_mask_lr             
     00015CA5  _ui_print_make_mask_rl             
     00015CC1  _ui_init                           ui
     00015D7A  _ui_load_tiles                     ui
     00015DD1  _ui_draw_frame                     ui
     00015E62  _ui_print_reset                    ui
     00015EB8  _ui_print_render                   ui
     00016159  _ui_draw_text_buffer_char          ui
     00016632  _ui_run_menu                       ui
     000168BC  _ui_run_modal                      ui

ASxxxx Linker V03.00 + NoICE + sdld,  page 52.
Hexadecimal  [32-Bits]

Area                                    Addr        Size        Decimal Bytes (Attributes)
--------------------------------        ----        ----        ------- ----- ------------
_CODE_6                             00064000    00003FFE =       16382. bytes (REL,CON)

      Value  Global                              Global Defined In Module
      -----  --------------------------------   ------------------------
     00064000  _bootstrap_script                  
     0006400B  ___func_scene_20_collisions        scene_20_collisions
     0006400B  _scene_20_collisions               scene_20_collisions
     00064F83  ___func_scene_24_collisions        scene_24_collisions
     00064F83  _scene_24_collisions               scene_24_collisions
     00065EFB  ___func_scene_26_collisions        scene_26_collisions
     00065EFB  _scene_26_collisions               scene_26_collisions
     00066E73  ___func_scene_28_collisions        scene_28_collisions
     00066E73  _scene_28_collisions               scene_28_collisions
     00067DEB  _script_s10a2_interact             script_s10a2_interact
     00067E7C  ___func_tileset_29                 tileset_29
     00067E7C  _tileset_29                        tileset_29
ASxxxx Linker V03.00 + NoICE + sdld,  page 53.
Hexadecimal  [32-Bits]

Area                                    Addr        Size        Decimal Bytes (Attributes)
--------------------------------        ----        ----        ------- ----- ------------
_CODE_4                             00044000    0000296D =       10605. bytes (REL,CON)

      Value  Global                              Global Defined In Module
      -----  --------------------------------   ------------------------
     00044000  _core_reset                        core
     00044075  _process_VM                        core
     0004431C  _core_run                          core
     000443E4  ___HandleCrash_banked              
     0004474B  _load_init                         data_manager
     0004475E  _spritesheet_none_far              data_manager
     00044761  _load_bkg_tileset                  data_manager
     0004486E  _load_background                   data_manager
     0004496C  _load_sprite                       data_manager
     00044A69  _load_bounds                       data_manager
     00044A89  _do_load_palette                   data_manager
     00044B09  _get_farptr_index                  data_manager
     00044B9F  _load_scene                        data_manager
     000454CE  _load_player                       data_manager
     0004551A  _load_emote                        data_manager
     0004552E  _events_init                       events
     0004556E  _timers_init                       events
     000455AE  _CGBFadeToWhiteStep                fade_manager
     000455E7  _CGBFadeToBlackStep                fade_manager
     00045622  _ApplyPaletteChangeColor           fade_manager
     00045666  _fade_speeds                       fade_manager
     0004566D  _DMGFadeToWhiteStep                fade_manager
     00045690  _DMGFadeToBlackStep                fade_manager
     000456B5  _ApplyPaletteChangeDMG             fade_manager
     0004572C  _fade_init                         fade_manager
     00045754  _fade_in                           fade_manager
     00045785  _fade_out                          fade_manager
     000457B7  _fade_update                       fade_manager
     00045811  _fade_applypalettechange           fade_manager
     0004582B  _fade_setspeed                     fade_manager
     0004583B  _fade_in_modal                     fade_manager
     0004585B  _fade_out_modal                    fade_manager
     000458E7  _save_sram_banks                   
     00045972  _erase_flash                       
     0004598D  _restore_sram_bank                 flasher
     000459BC  _restore_sram                      flasher
     000459D2  _save_sram                         flasher
     000459E5  _input_init                        input
     00045A06  _data_init                         load_save
     00045A5E  _signature                         load_save
     00045A62  _save_points                       load_save
     00045AA6  _data_slot_address                 load_save
     00045AFE  _data_save                         load_save
     00045BB7  _data_load                         load_save
     00045C8A  _data_clear                        load_save
     00045CBC  _data_peek                         load_save
     00045D5A  _sound_init                        music_manager
     00045D8B  _music_init                        music_manager
     00045DC7  _music_events_poll                 music_manager
     00045DF1  _music_stop                        music_manager
ASxxxx Linker V03.00 + NoICE + sdld,  page 54.
Hexadecimal  [32-Bits]

Area                                    Addr        Size        Decimal Bytes (Attributes)
--------------------------------        ----        ----        ------- ----- ------------
_CODE_4                             00044000    0000296D =       10605. bytes (REL,CON)

      Value  Global                              Global Defined In Module
      -----  --------------------------------   ------------------------
     00045E04  _wave_play                         music_manager
     00045E42  _FX_REG_SIZES                      music_manager
     00045E47  _FX_ADDR_LO                        music_manager
     00045E4C  _channel_masks                     music_manager
     00045E51  _sound_play                        music_manager
     00045ED2  _palette_init                      palette
     00045F0B  _CGBZeroPalette                    palette
     00045F20  _projectiles_init                  projectiles
     00045F60  _projectile_launch                 projectiles
     00046345  _set_sample                        sample_player
     0004637E  _set_sgb_border                    sgb_border
     000465C2  _SIO_init                          sio
     000465EB  _trigger_reset                     trigger
     000465FB  _trigger_interact                  trigger
     0004663B  _trigger_activate_at               trigger
     00046686  _trigger_activate_at_intersectio   trigger
     000467C8  _trigger_at_intersection           trigger
     000468DD  _trigger_at_tile                   trigger

ASxxxx Linker V03.00 + NoICE + sdld,  page 55.
Hexadecimal  [32-Bits]

Area                                    Addr        Size        Decimal Bytes (Attributes)
--------------------------------        ----        ----        ------- ----- ------------
_CRASH_HEADER0                      00000000    00000005 =           5. bytes (ABS,CON)

      Value  Global                              Global Defined In Module
      -----  --------------------------------   ------------------------
ASxxxx Linker V03.00 + NoICE + sdld,  page 56.
Hexadecimal  [32-Bits]

Area                                    Addr        Size        Decimal Bytes (Attributes)
--------------------------------        ----        ----        ------- ----- ------------
_CRASH_HEADER1                      00000000    00000004 =           4. bytes (ABS,CON)

      Value  Global                              Global Defined In Module
      -----  --------------------------------   ------------------------
ASxxxx Linker V03.00 + NoICE + sdld,  page 57.
Hexadecimal  [32-Bits]

Area                                    Addr        Size        Decimal Bytes (Attributes)
--------------------------------        ----        ----        ------- ----- ------------
_CRASH_SCRATCH2                     00000000    000001CB =         459. bytes (ABS,CON)

      Value  Global                              Global Defined In Module
      -----  --------------------------------   ------------------------
ASxxxx Linker V03.00 + NoICE + sdld,  page 58.
Hexadecimal  [32-Bits]

Area                                    Addr        Size        Decimal Bytes (Attributes)
--------------------------------        ----        ----        ------- ----- ------------
_HEADER_SIO0                        00000000    00000004 =           4. bytes (ABS,CON)

      Value  Global                              Global Defined In Module
      -----  --------------------------------   ------------------------
ASxxxx Linker V03.00 + NoICE + sdld,  page 59.
Hexadecimal  [32-Bits]

Area                                    Addr        Size        Decimal Bytes (Attributes)
--------------------------------        ----        ----        ------- ----- ------------
_HEADER_TIMER0                      00000000    00000004 =           4. bytes (ABS,CON)

      Value  Global                              Global Defined In Module
      -----  --------------------------------   ------------------------
ASxxxx Linker V03.00 + NoICE + sdld,  page 60.
Hexadecimal  [32-Bits]

Area                                    Addr        Size        Decimal Bytes (Attributes)
--------------------------------        ----        ----        ------- ----- ------------
_CODE_2                             00024000    0000395A =       14682. bytes (REL,CON)

      Value  Global                              Global Defined In Module
      -----  --------------------------------   ------------------------
     00024000  _scroll_rect                       
     0002403D  _vm_actor_move_to                  vm_actor
     000248B8  _vm_actor_activate                 vm_actor
     000248F6  _vm_actor_deactivate               vm_actor
     00024934  _vm_actor_terminate_update         vm_actor
     0002497B  _vm_actor_set_dir                  vm_actor
     000249C4  _vm_actor_set_anim                 vm_actor
     00024A51  _vm_actor_set_pos                  vm_actor
     00024ACB  _vm_actor_get_pos                  vm_actor
     00024B3A  _vm_actor_get_dir                  vm_actor
     00024BB4  _vm_actor_get_angle                vm_actor
     00024C35  _vm_actor_emote                    vm_actor
     00024CF9  _vm_actor_set_bounds               vm_actor
     00024D57  _vm_actor_set_spritesheet          vm_actor
     00024E26  _vm_actor_replace_tile             vm_actor
     00024E90  _vm_actor_set_hidden               vm_actor
     00024ED5  _vm_actor_set_anim_tick            vm_actor
     00024F13  _vm_actor_set_move_speed           vm_actor
     00024F51  _vm_actor_set_coll_enabled         vm_actor
     00024F96  _vm_actor_set_anim_frame           vm_actor
     00024FD9  _vm_actor_get_anim_frame           vm_actor
     00025021  _vm_actor_set_anim_set             vm_actor
     000250AE  _vm_actor_set_spritesheet_by_ref   vm_actor
     000251BC  _vm_camera_move_to                 vm_camera
     0002530F  _vm_camera_set_pos                 vm_camera
     00025356  _camera_shake_frames               vm_camera
     0002544E  _vm_show_sprites                   vm_gameboy
     0002545A  _vm_hide_sprites                   vm_gameboy
     00025466  _vm_input_wait                     vm_gameboy
     0002548E  _vm_context_prepare                vm_gameboy
     000254B9  _vm_input_attach                   vm_gameboy
     000254CF  _vm_input_detach                   vm_gameboy
     000254E3  _vm_input_get                      vm_gameboy
     00025517  _vm_fade_in                        vm_gameboy
     0002552D  _vm_fade_out                       vm_gameboy
     00025543  _vm_timer_prepare                  vm_gameboy
     0002556E  _vm_timer_set                      vm_gameboy
     00025589  _vm_timer_stop                     vm_gameboy
     0002559D  _vm_timer_reset                    vm_gameboy
     000255B4  _vm_get_tile_xy                    vm_gameboy
     0002569D  _vm_replace_tile                   vm_gameboy
     00025746  _vm_poll                           vm_gameboy
     0002581F  _vm_set_sprite_mode                vm_gameboy
     00025833  _vm_replace_tile_xy                vm_gameboy
     00025955  _vm_rumble                         vm_gameboy
     0002596D  _vm_save_clear                     vm_load_save
     0002597C  _vm_save_peek                      vm_load_save
     000259FC  _vm_sin_scale                      vm_math
     00025A9E  _vm_cos_scale                      vm_math
     00025B42  _vm_music_play                     vm_music
ASxxxx Linker V03.00 + NoICE + sdld,  page 61.
Hexadecimal  [32-Bits]

Area                                    Addr        Size        Decimal Bytes (Attributes)
--------------------------------        ----        ----        ------- ----- ------------
_CODE_2                             00024000    0000395A =       14682. bytes (REL,CON)

      Value  Global                              Global Defined In Module
      -----  --------------------------------   ------------------------
     00025B56  _vm_music_stop                     vm_music
     00025B5E  _vm_music_mute                     vm_music
     00025B6E  _vm_music_routine                  vm_music
     00025B95  _vm_music_setpos                   vm_music
     00025B9F  _vm_sound_mastervol                vm_music
     00025BA5  _vm_sound_play                     vm_music
     00025BED  _vm_wave_play                      vm_music
     00025C0A  _vm_load_palette                   vm_palette
     00025DBE  _vm_projectile_launch              vm_projectiles
     00025DF9  _vm_rtc_latch                      vm_rtc
     00025E01  _vm_rtc_get                        vm_rtc
     00025E4A  _vm_rtc_set                        vm_rtc
     00025E93  _vm_rtc_start                      vm_rtc
     00025EAE  _vm_scene_push                     vm_scene
     00025F33  _vm_scene_pop                      vm_scene
     00025F41  _vm_scene_pop_all                  vm_scene
     00025F4C  _vm_scene_stack_reset              vm_scene
     00025F55  _vm_sio_set_mode                   vm_sio
     00025F68  _vm_sio_exchange                   vm_sio
     000262C1  _itoa_fmt                          vm_ui_a
     000262FA  .utoa_fmt                          vm_ui_a
     000263A4  _vm_display_text                   vm_ui
     000263BA  _vm_switch_text_layer              vm_ui
     000263D4  _vm_overlay_setpos                 vm_ui
     000263EE  _vm_overlay_hide                   vm_ui
     00026403  _vm_overlay_wait                   vm_ui
     000264A6  _vm_overlay_move_to                vm_ui
     000264EA  _vm_overlay_set_scroll             vm_ui
     00026527  _vm_overlay_clear                  vm_ui
     000265FD  _vm_overlay_show                   vm_ui
     0002664B  _vm_choice                         vm_ui
     000266EA  _vm_load_frame                     vm_ui
     000266FD  _vm_load_cursor                    vm_ui
     00026710  _vm_set_font                       vm_ui
     0002673D  _vm_set_print_dir                  vm_ui
     00026746  _vm_overlay_scroll                 vm_ui
     000267A2  _vm_overlay_set_submap             vm_ui
     00026812  _vm_call_rel                       vm
     00026864  _vm_call                           vm
     000268A6  _vm_ret                            vm
     00026905  _vm_call_far                       vm
     00026982  _vm_ret_far                        vm
     000269F1  _vm_push                           vm
     00026A1B  _vm_pop                            vm
     00026A56  _vm_loop_rel                       vm
     00026B04  _vm_loop                           vm
     00026B91  _vm_jump_rel                       vm
     00026BB5  _vm_jump                           vm
     00026BC1  _vm_systime                        vm
     00026BED  _wait_frames                       vm
     00026C64  _vm_invoke                         vm
ASxxxx Linker V03.00 + NoICE + sdld,  page 62.
Hexadecimal  [32-Bits]

Area                                    Addr        Size        Decimal Bytes (Attributes)
--------------------------------        ----        ----        ------- ----- ------------
_CODE_2                             00024000    0000395A =       14682. bytes (REL,CON)

      Value  Global                              Global Defined In Module
      -----  --------------------------------   ------------------------
     00026D90  _vm_join                           vm
     00026DE9  _vm_terminate                      vm
     00026E16  _vm_if                             vm
     00026F5A  _vm_if_const                       vm
     0002706E  _vm_push_value                     vm
     000270C0  _vm_push_value_ind                 vm
     00027135  _vm_push_reference                 vm
     0002718C  _vm_reserve                        vm
     000271B9  _vm_set                            vm
     0002721A  _vm_set_const                      vm
     00027246  _vm_get_tlocal                     vm
     000272D3  _vm_test_terminate                 vm
     000272DE  _vm_idle                           vm
     000272EA  _vm_get_uint8                      vm
     0002731D  _vm_get_int8                       vm
     00027351  _vm_get_int16                      vm
     00027393  _vm_set_uint8                      vm
     000273BF  _vm_set_int8                       vm
     000273EB  _vm_set_int16                      vm
     0002742A  _vm_set_const_int8                 vm
     00027433  _vm_set_const_int16                vm
     0002743F  _vm_randomize                      vm
     0002744A  _vm_rand                           vm
     000274CF  _vm_lock                           vm
     000274DE  _vm_unlock                         vm
     000274F1  _vm_raise                          vm
     00027533  _vm_set_indirect                   vm
     000275AE  _vm_get_indirect                   vm
     00027629  _vm_poll_loaded                    vm
     00027658  _vm_memset                         vm
     0002769D  _vm_memcpy                         vm
     0002771D  _script_runner_init                vm
     000277D9  _script_execute                    vm
     000278F4  _script_terminate                  vm
ASxxxx Linker V03.00 + NoICE + sdld,  page 63.
Hexadecimal  [32-Bits]

Area                                    Addr        Size        Decimal Bytes (Attributes)
--------------------------------        ----        ----        ------- ----- ------------
_CODE_7                             00074000    00003FFF =       16383. bytes (REL,CON)

      Value  Global                              Global Defined In Module
      -----  --------------------------------   ------------------------
     00074000  ___func_background_0               background_0
     00074000  _background_0                      background_0
     0007400E  ___func_frame_image                frame_image
     0007400E  _frame_image                       frame_image
     0007409E  ___func_scene_32_collisions        scene_32_collisions
     0007409E  _scene_32_collisions               scene_32_collisions
     00075016  ___func_scene_34_collisions        scene_34_collisions
     00075016  _scene_34_collisions               scene_34_collisions
     00075F8E  ___func_scene_36_collisions        scene_36_collisions
     00075F8E  _scene_36_collisions               scene_36_collisions
     00076F06  ___func_scene_8_collisions         scene_8_collisions
     00076F06  _scene_8_collisions                scene_8_collisions
     00077E7E  _script_s10_p_hit1                 script_s10_p_hit1

ASxxxx Linker V03.00 + NoICE + sdld,  page 64.
Hexadecimal  [32-Bits]

Area                                    Addr        Size        Decimal Bytes (Attributes)
--------------------------------        ----        ----        ------- ----- ------------
_CODE_10                            000A4000    00003FFF =       16383. bytes (REL,CON)

      Value  Global                              Global Defined In Module
      -----  --------------------------------   ------------------------
     000A4000  ___func_background_1               background_1
     000A4000  _background_1                      background_1
     000A400E  ___func_scene_1_collisions         scene_1_collisions
     000A400E  _scene_1_collisions                scene_1_collisions
     000A4176  ___func_spritesheet_11             spritesheet_11
     000A4176  _spritesheet_11_metasprite_0       spritesheet_11
     000A418A  _spritesheet_11_metasprite_1       spritesheet_11
     000A419E  _spritesheet_11_metasprite_2       spritesheet_11
     000A41B2  _spritesheet_11_metasprite_3       spritesheet_11
     000A41C6  _spritesheet_11_metasprite_4       spritesheet_11
     000A41DA  _spritesheet_11_metasprite_5       spritesheet_11
     000A41EE  _spritesheet_11_metasprites        spritesheet_11
     000A41FA  _spritesheet_11_animations         spritesheet_11
     000A420A  _spritesheet_11_animations_looku   spritesheet_11
     000A420C  _spritesheet_11                    spritesheet_11
     000A421F  ___func_tilemap_31                 tilemap_31
     000A421F  _tilemap_31                        tilemap_31
     000A5197  ___func_tilemap_32                 tilemap_32
     000A5197  _tilemap_32                        tilemap_32
     000A610F  ___func_tilemap_33                 tilemap_33
     000A610F  _tilemap_33                        tilemap_33
     000A7087  ___func_tilemap_34                 tilemap_34
     000A7087  _tilemap_34                        tilemap_34

ASxxxx Linker V03.00 + NoICE + sdld,  page 65.
Hexadecimal  [32-Bits]

Area                                    Addr        Size        Decimal Bytes (Attributes)
--------------------------------        ----        ----        ------- ----- ------------
_CODE_12                            000C4000    00004000 =       16384. bytes (REL,CON)

      Value  Global                              Global Defined In Module
      -----  --------------------------------   ------------------------
     000C4000  ___func_background_10              background_10
     000C4000  _background_10                     background_10
     000C400E  ___func_scene_10_triggers          scene_10_triggers
     000C400E  _scene_10_triggers                 scene_10_triggers
     000C4016  ___func_scene_13_collisions        scene_13_collisions
     000C4016  _scene_13_collisions               scene_13_collisions
     000C417E  ___func_tilemap_attr_14            tilemap_attr_14
     000C417E  _tilemap_attr_14                   tilemap_attr_14
     000C50F6  ___func_tilemap_attr_15            tilemap_attr_15
     000C50F6  _tilemap_attr_15                   tilemap_attr_15
     000C606E  ___func_tilemap_attr_16            tilemap_attr_16
     000C606E  _tilemap_attr_16                   tilemap_attr_16
     000C6FE6  ___func_tilemap_attr_6             tilemap_attr_6
     000C6FE6  _tilemap_attr_6                    tilemap_attr_6
     000C7F5E  ___func_tileset_27                 tileset_27
     000C7F5E  _tileset_27                        tileset_27

ASxxxx Linker V03.00 + NoICE + sdld,  page 66.
Hexadecimal  [32-Bits]

Area                                    Addr        Size        Decimal Bytes (Attributes)
--------------------------------        ----        ----        ------- ----- ------------
_CODE_14                            000E4000    00004000 =       16384. bytes (REL,CON)

      Value  Global                              Global Defined In Module
      -----  --------------------------------   ------------------------
     000E4000  ___func_background_11              background_11
     000E4000  _background_11                     background_11
     000E400E  ___func_scene_40_sprites           scene_40_sprites
     000E400E  _scene_40_sprites                  scene_40_sprites
     000E4011  ___func_spritesheet_7              spritesheet_7
     000E4011  _spritesheet_7_metasprite_0        spritesheet_7
     000E4025  _spritesheet_7_metasprite_1        spritesheet_7
     000E4039  _spritesheet_7_metasprite_2        spritesheet_7
     000E404D  _spritesheet_7_metasprite_3        spritesheet_7
     000E4059  _spritesheet_7_metasprite_4        spritesheet_7
     000E4065  _spritesheet_7_metasprites         spritesheet_7
     000E406F  _spritesheet_7_animations          spritesheet_7
     000E407F  _spritesheet_7_animations_lookup   spritesheet_7
     000E4081  _spritesheet_7                     spritesheet_7
     000E4094  ___func_tileset_11                 tileset_11
     000E4094  _tileset_11                        tileset_11
     000E4C56  ___func_tileset_4                  tileset_4
     000E4C56  _tileset_4                         tileset_4
     000E5758  ___func_tileset_6                  tileset_6
     000E5758  _tileset_6                         tileset_6
     000E631A  ___func_tileset_7                  tileset_7
     000E631A  _tileset_7                         tileset_7
     000E6E6C  ___func_tileset_8                  tileset_8
     000E6E6C  _tileset_8                         tileset_8
     000E764E  ___func_tileset_9                  tileset_9
     000E764E  _tileset_9                         tileset_9

ASxxxx Linker V03.00 + NoICE + sdld,  page 67.
Hexadecimal  [32-Bits]

Area                                    Addr        Size        Decimal Bytes (Attributes)
--------------------------------        ----        ----        ------- ----- ------------
_CODE_16                            00104000    00004000 =       16384. bytes (REL,CON)

      Value  Global                              Global Defined In Module
      -----  --------------------------------   ------------------------
     00104000  ___func_background_12              background_12
     00104000  _background_12                     background_12
     0010400E  ___func_scene_12_triggers          scene_12_triggers
     0010400E  _scene_12_triggers                 scene_12_triggers
     00104016  ___func_scene_29_collisions        scene_29_collisions
     00104016  _scene_29_collisions               scene_29_collisions
     0010417E  ___func_scene_3_collisions         scene_3_collisions
     0010417E  _scene_3_collisions                scene_3_collisions
     001042E6  ___func_scene_30_collisions        scene_30_collisions
     001042E6  _scene_30_collisions               scene_30_collisions
     0010444E  ___func_scene_31_collisions        scene_31_collisions
     0010444E  _scene_31_collisions               scene_31_collisions
     001045B6  ___func_scene_33_collisions        scene_33_collisions
     001045B6  _scene_33_collisions               scene_33_collisions
     0010471E  ___func_scene_35_collisions        scene_35_collisions
     0010471E  _scene_35_collisions               scene_35_collisions
     00104886  ___func_scene_37_collisions        scene_37_collisions
     00104886  _scene_37_collisions               scene_37_collisions
     001049EE  ___func_scene_38_collisions        scene_38_collisions
     001049EE  _scene_38_collisions               scene_38_collisions
     00104B56  ___func_scene_39_collisions        scene_39_collisions
     00104B56  _scene_39_collisions               scene_39_collisions
     00104CBE  ___func_scene_4_collisions         scene_4_collisions
     00104CBE  _scene_4_collisions                scene_4_collisions
     00104E26  ___func_scene_40_collisions        scene_40_collisions
     00104E26  _scene_40_collisions               scene_40_collisions
     00104F8E  ___func_scene_41_collisions        scene_41_collisions
     00104F8E  _scene_41_collisions               scene_41_collisions
     001050F6  ___func_scene_42_collisions        scene_42_collisions
     001050F6  _scene_42_collisions               scene_42_collisions
     0010525E  ___func_scene_5_collisions         scene_5_collisions
     0010525E  _scene_5_collisions                scene_5_collisions
     001053C6  ___func_scene_6_collisions         scene_6_collisions
     001053C6  _scene_6_collisions                scene_6_collisions
     0010552E  ___func_scene_7_collisions         scene_7_collisions
     0010552E  _scene_7_collisions                scene_7_collisions
     00105696  ___func_scene_9_collisions         scene_9_collisions
     00105696  _scene_9_collisions                scene_9_collisions
     001057FE  ___func_tilemap_0                  tilemap_0
     001057FE  _tilemap_0                         tilemap_0
     00105966  ___func_tilemap_1                  tilemap_1
     00105966  _tilemap_1                         tilemap_1
     00105ACE  ___func_tilemap_10                 tilemap_10
     00105ACE  _tilemap_10                        tilemap_10
     00105C36  ___func_tilemap_11                 tilemap_11
     00105C36  _tilemap_11                        tilemap_11
     00105D9E  ___func_tilemap_12                 tilemap_12
     00105D9E  _tilemap_12                        tilemap_12
     00105F06  ___func_tilemap_13                 tilemap_13
     00105F06  _tilemap_13                        tilemap_13
ASxxxx Linker V03.00 + NoICE + sdld,  page 68.
Hexadecimal  [32-Bits]

Area                                    Addr        Size        Decimal Bytes (Attributes)
--------------------------------        ----        ----        ------- ----- ------------
_CODE_16                            00104000    00004000 =       16384. bytes (REL,CON)

      Value  Global                              Global Defined In Module
      -----  --------------------------------   ------------------------
     0010606E  ___func_tilemap_14                 tilemap_14
     0010606E  _tilemap_14                        tilemap_14
     001061D6  ___func_tilemap_15                 tilemap_15
     001061D6  _tilemap_15                        tilemap_15
     0010633E  ___func_tilemap_16                 tilemap_16
     0010633E  _tilemap_16                        tilemap_16
     001064A6  ___func_tilemap_17                 tilemap_17
     001064A6  _tilemap_17                        tilemap_17
     0010660E  ___func_tilemap_18                 tilemap_18
     0010660E  _tilemap_18                        tilemap_18
     00106776  ___func_tilemap_19                 tilemap_19
     00106776  _tilemap_19                        tilemap_19
     001068DE  ___func_tilemap_2                  tilemap_2
     001068DE  _tilemap_2                         tilemap_2
     00106A46  ___func_tilemap_20                 tilemap_20
     00106A46  _tilemap_20                        tilemap_20
     00106BAE  ___func_tilemap_21                 tilemap_21
     00106BAE  _tilemap_21                        tilemap_21
     00106D16  ___func_tilemap_22                 tilemap_22
     00106D16  _tilemap_22                        tilemap_22
     00106E7E  ___func_tilemap_3                  tilemap_3
     00106E7E  _tilemap_3                         tilemap_3
     00106FE6  ___func_tilemap_35                 tilemap_35
     00106FE6  _tilemap_35                        tilemap_35
     0010714E  ___func_tilemap_36                 tilemap_36
     0010714E  _tilemap_36                        tilemap_36
     001072B6  ___func_tilemap_37                 tilemap_37
     001072B6  _tilemap_37                        tilemap_37
     0010741E  ___func_tilemap_38                 tilemap_38
     0010741E  _tilemap_38                        tilemap_38
     00107586  ___func_tilemap_4                  tilemap_4
     00107586  _tilemap_4                         tilemap_4
     001076EE  ___func_tilemap_5                  tilemap_5
     001076EE  _tilemap_5                         tilemap_5
     00107856  ___func_tilemap_6                  tilemap_6
     00107856  _tilemap_6                         tilemap_6
     001079BE  ___func_tilemap_7                  tilemap_7
     001079BE  _tilemap_7                         tilemap_7
     00107B26  ___func_tilemap_8                  tilemap_8
     00107B26  _tilemap_8                         tilemap_8
     00107C8E  ___func_tilemap_9                  tilemap_9
     00107C8E  _tilemap_9                         tilemap_9
     00107DF6  ___func_tilemap_attr_0             tilemap_attr_0
     00107DF6  _tilemap_attr_0                    tilemap_attr_0
     00107F5E  ___func_tileset_28                 tileset_28
     00107F5E  _tileset_28                        tileset_28
ASxxxx Linker V03.00 + NoICE + sdld,  page 69.
Hexadecimal  [32-Bits]

Area                                    Addr        Size        Decimal Bytes (Attributes)
--------------------------------        ----        ----        ------- ----- ------------
_CODE_18                            00124000    000029B1 =       10673. bytes (REL,CON)

      Value  Global                              Global Defined In Module
      -----  --------------------------------   ------------------------
     00124000  ___func_background_13              background_13
     00124000  _background_13                     background_13
     0012400E  ___func_background_14              background_14
     0012400E  _background_14                     background_14
     0012401C  ___func_background_15              background_15
     0012401C  _background_15                     background_15
     0012402A  ___func_background_16              background_16
     0012402A  _background_16                     background_16
     00124038  ___func_background_17              background_17
     00124038  _background_17                     background_17
     00124046  ___func_background_18              background_18
     00124046  _background_18                     background_18
     00124054  ___func_background_19              background_19
     00124054  _background_19                     background_19
     00124062  ___func_background_2               background_2
     00124062  _background_2                      background_2
     00124070  ___func_background_20              background_20
     00124070  _background_20                     background_20
     0012407E  ___func_background_21              background_21
     0012407E  _background_21                     background_21
     0012408C  ___func_background_22              background_22
     0012408C  _background_22                     background_22
     0012409A  ___func_background_23              background_23
     0012409A  _background_23                     background_23
     001240A8  ___func_background_24              background_24
     001240A8  _background_24                     background_24
     001240B6  ___func_background_25              background_25
     001240B6  _background_25                     background_25
     001240C4  ___func_background_26              background_26
     001240C4  _background_26                     background_26
     001240D2  ___func_background_27              background_27
     001240D2  _background_27                     background_27
     001240E0  ___func_background_28              background_28
     001240E0  _background_28                     background_28
     001240EE  ___func_background_29              background_29
     001240EE  _background_29                     background_29
     001240FC  ___func_background_3               background_3
     001240FC  _background_3                      background_3
     0012410A  ___func_background_30              background_30
     0012410A  _background_30                     background_30
     00124118  ___func_background_31              background_31
     00124118  _background_31                     background_31
     00124126  ___func_background_32              background_32
     00124126  _background_32                     background_32
     00124134  ___func_background_33              background_33
     00124134  _background_33                     background_33
     00124142  ___func_background_34              background_34
     00124142  _background_34                     background_34
     00124150  ___func_background_35              background_35
     00124150  _background_35                     background_35
ASxxxx Linker V03.00 + NoICE + sdld,  page 70.
Hexadecimal  [32-Bits]

Area                                    Addr        Size        Decimal Bytes (Attributes)
--------------------------------        ----        ----        ------- ----- ------------
_CODE_18                            00124000    000029B1 =       10673. bytes (REL,CON)

      Value  Global                              Global Defined In Module
      -----  --------------------------------   ------------------------
     0012415E  ___func_background_36              background_36
     0012415E  _background_36                     background_36
     0012416C  ___func_background_37              background_37
     0012416C  _background_37                     background_37
     0012417A  ___func_background_38              background_38
     0012417A  _background_38                     background_38
     00124188  ___func_background_4               background_4
     00124188  _background_4                      background_4
     00124196  ___func_background_5               background_5
     00124196  _background_5                      background_5
     001241A4  ___func_background_6               background_6
     001241A4  _background_6                      background_6
     001241B2  ___func_background_7               background_7
     001241B2  _background_7                      background_7
     001241C0  ___func_background_8               background_8
     001241C0  _background_8                      background_8
     001241CE  ___func_background_9               background_9
     001241CE  _background_9                      background_9
     001241DC  ___func_emote_0                    emote_0
     001241DC  _emote_0                           emote_0
     0012421C  ___func_palette_0                  palette_0
     0012421C  _palette_0                         palette_0
     0012425F  ___func_palette_1                  palette_1
     0012425F  _palette_1                         palette_1
     001242A2  ___func_palette_10                 palette_10
     001242A2  _palette_10                        palette_10
     001242E5  ___func_palette_11                 palette_11
     001242E5  _palette_11                        palette_11
     00124328  ___func_palette_12                 palette_12
     00124328  _palette_12                        palette_12
     0012436B  ___func_palette_13                 palette_13
     0012436B  _palette_13                        palette_13
     001243AE  ___func_palette_14                 palette_14
     001243AE  _palette_14                        palette_14
     001243F1  ___func_palette_15                 palette_15
     001243F1  _palette_15                        palette_15
     00124434  ___func_palette_16                 palette_16
     00124434  _palette_16                        palette_16
     00124477  ___func_palette_17                 palette_17
     00124477  _palette_17                        palette_17
     001244BA  ___func_palette_18                 palette_18
     001244BA  _palette_18                        palette_18
     001244FD  ___func_palette_19                 palette_19
     001244FD  _palette_19                        palette_19
     00124540  ___func_palette_2                  palette_2
     00124540  _palette_2                         palette_2
     00124583  ___func_palette_20                 palette_20
     00124583  _palette_20                        palette_20
     001245C6  ___func_palette_21                 palette_21
     001245C6  _palette_21                        palette_21
     00124609  ___func_palette_22                 palette_22
ASxxxx Linker V03.00 + NoICE + sdld,  page 71.
Hexadecimal  [32-Bits]

Area                                    Addr        Size        Decimal Bytes (Attributes)
--------------------------------        ----        ----        ------- ----- ------------
_CODE_18                            00124000    000029B1 =       10673. bytes (REL,CON)

      Value  Global                              Global Defined In Module
      -----  --------------------------------   ------------------------
     00124609  _palette_22                        palette_22
     0012464C  ___func_palette_23                 palette_23
     0012464C  _palette_23                        palette_23
     0012468F  ___func_palette_24                 palette_24
     0012468F  _palette_24                        palette_24
     001246D2  ___func_palette_25                 palette_25
     001246D2  _palette_25                        palette_25
     00124715  ___func_palette_26                 palette_26
     00124715  _palette_26                        palette_26
     00124758  ___func_palette_27                 palette_27
     00124758  _palette_27                        palette_27
     0012479B  ___func_palette_28                 palette_28
     0012479B  _palette_28                        palette_28
     001247DE  ___func_palette_3                  palette_3
     001247DE  _palette_3                         palette_3
     00124821  ___func_palette_4                  palette_4
     00124821  _palette_4                         palette_4
     00124864  ___func_palette_5                  palette_5
     00124864  _palette_5                         palette_5
     001248A7  ___func_palette_6                  palette_6
     001248A7  _palette_6                         palette_6
     001248EA  ___func_palette_7                  palette_7
     001248EA  _palette_7                         palette_7
     0012492D  ___func_palette_8                  palette_8
     0012492D  _palette_8                         palette_8
     00124970  ___func_palette_9                  palette_9
     00124970  _palette_9                         palette_9
     001249B3  ___func_scene_0                    scene_0
     001249B3  _scene_0                           scene_0
     001249ED  ___func_scene_1                    scene_1
     001249ED  _scene_1                           scene_1
     00124A27  ___func_scene_10_projectiles       scene_10_projectiles
     00124A27  _scene_10_projectiles              scene_10_projectiles
     00124A3E  ___func_scene_10_sprites           scene_10_sprites
     00124A3E  _scene_10_sprites                  scene_10_sprites
     00124A5C  ___func_scene_10                   scene_10
     00124A5C  _scene_10                          scene_10
     00124A96  ___func_scene_11                   scene_11
     00124A96  _scene_11                          scene_11
     00124AD0  ___func_scene_12_actors            scene_12_actors
     00124AD0  _scene_12_actors                   scene_12_actors
     00124B34  ___func_scene_12_projectiles       scene_12_projectiles
     00124B34  _scene_12_projectiles              scene_12_projectiles
     00124B4B  ___func_scene_12                   scene_12
     00124B4B  _scene_12                          scene_12
     00124B85  ___func_scene_13                   scene_13
     00124B85  _scene_13                          scene_13
     00124BBF  ___func_scene_14                   scene_14
     00124BBF  _scene_14                          scene_14
     00124BF9  ___func_scene_15                   scene_15
     00124BF9  _scene_15                          scene_15
ASxxxx Linker V03.00 + NoICE + sdld,  page 72.
Hexadecimal  [32-Bits]

Area                                    Addr        Size        Decimal Bytes (Attributes)
--------------------------------        ----        ----        ------- ----- ------------
_CODE_18                            00124000    000029B1 =       10673. bytes (REL,CON)

      Value  Global                              Global Defined In Module
      -----  --------------------------------   ------------------------
     00124C33  ___func_scene_16_projectiles       scene_16_projectiles
     00124C33  _scene_16_projectiles              scene_16_projectiles
     00124C4A  ___func_scene_16_triggers          scene_16_triggers
     00124C4A  _scene_16_triggers                 scene_16_triggers
     00124C52  ___func_scene_16                   scene_16
     00124C52  _scene_16                          scene_16
     00124C8C  ___func_scene_17                   scene_17
     00124C8C  _scene_17                          scene_17
     00124CC6  ___func_scene_18_actors            scene_18_actors
     00124CC6  _scene_18_actors                   scene_18_actors
     00124D2A  ___func_scene_18_projectiles       scene_18_projectiles
     00124D2A  _scene_18_projectiles              scene_18_projectiles
     00124D41  ___func_scene_18_sprites           scene_18_sprites
     00124D41  _scene_18_sprites                  scene_18_sprites
     00124D4A  ___func_scene_18_triggers          scene_18_triggers
     00124D4A  _scene_18_triggers                 scene_18_triggers
     00124D52  ___func_scene_18                   scene_18
     00124D52  _scene_18                          scene_18
     00124D8C  ___func_scene_19                   scene_19
     00124D8C  _scene_19                          scene_19
     00124DC6  ___func_scene_2_actors             scene_2_actors
     00124DC6  _scene_2_actors                    scene_2_actors
     00124DF8  ___func_scene_2                    scene_2
     00124DF8  _scene_2                           scene_2
     00124E32  ___func_scene_20_actors            scene_20_actors
     00124E32  _scene_20_actors                   scene_20_actors
     00124E96  ___func_scene_20_projectiles       scene_20_projectiles
     00124E96  _scene_20_projectiles              scene_20_projectiles
     00124EAD  ___func_scene_20_sprites           scene_20_sprites
     00124EAD  _scene_20_sprites                  scene_20_sprites
     00124EB6  ___func_scene_20_triggers          scene_20_triggers
     00124EB6  _scene_20_triggers                 scene_20_triggers
     00124EBE  ___func_scene_20                   scene_20
     00124EBE  _scene_20                          scene_20
     00124EF8  ___func_scene_21                   scene_21
     00124EF8  _scene_21                          scene_21
     00124F32  ___func_scene_22                   scene_22
     00124F32  _scene_22                          scene_22
     00124F6C  ___func_scene_23                   scene_23
     00124F6C  _scene_23                          scene_23
     00124FA6  ___func_scene_24_actors            scene_24_actors
     00124FA6  _scene_24_actors                   scene_24_actors
     0012500A  ___func_scene_24_projectiles       scene_24_projectiles
     0012500A  _scene_24_projectiles              scene_24_projectiles
     00125021  ___func_scene_24_sprites           scene_24_sprites
     00125021  _scene_24_sprites                  scene_24_sprites
     0012502A  ___func_scene_24_triggers          scene_24_triggers
     0012502A  _scene_24_triggers                 scene_24_triggers
     00125032  ___func_scene_24                   scene_24
     00125032  _scene_24                          scene_24
     0012506C  ___func_scene_25                   scene_25
ASxxxx Linker V03.00 + NoICE + sdld,  page 73.
Hexadecimal  [32-Bits]

Area                                    Addr        Size        Decimal Bytes (Attributes)
--------------------------------        ----        ----        ------- ----- ------------
_CODE_18                            00124000    000029B1 =       10673. bytes (REL,CON)

      Value  Global                              Global Defined In Module
      -----  --------------------------------   ------------------------
     0012506C  _scene_25                          scene_25
     001250A6  ___func_scene_26_actors            scene_26_actors
     001250A6  _scene_26_actors                   scene_26_actors
     0012510A  ___func_scene_26_projectiles       scene_26_projectiles
     0012510A  _scene_26_projectiles              scene_26_projectiles
     00125121  ___func_scene_26_sprites           scene_26_sprites
     00125121  _scene_26_sprites                  scene_26_sprites
     0012512A  ___func_scene_26_triggers          scene_26_triggers
     0012512A  _scene_26_triggers                 scene_26_triggers
     00125132  ___func_scene_26                   scene_26
     00125132  _scene_26                          scene_26
     0012516C  ___func_scene_27                   scene_27
     0012516C  _scene_27                          scene_27
     001251A6  ___func_scene_28_actors            scene_28_actors
     001251A6  _scene_28_actors                   scene_28_actors
     0012520A  ___func_scene_28_projectiles       scene_28_projectiles
     0012520A  _scene_28_projectiles              scene_28_projectiles
     00125221  ___func_scene_28_sprites           scene_28_sprites
     00125221  _scene_28_sprites                  scene_28_sprites
     0012522A  ___func_scene_28_triggers          scene_28_triggers
     0012522A  _scene_28_triggers                 scene_28_triggers
     00125232  ___func_scene_28                   scene_28
     00125232  _scene_28                          scene_28
     0012526C  ___func_scene_29                   scene_29
     0012526C  _scene_29                          scene_29
     001252A6  ___func_scene_3_actors             scene_3_actors
     001252A6  _scene_3_actors                    scene_3_actors
     001252D8  ___func_scene_3                    scene_3
     001252D8  _scene_3                           scene_3
     00125312  ___func_scene_30                   scene_30
     00125312  _scene_30                          scene_30
     0012534C  ___func_scene_31                   scene_31
     0012534C  _scene_31                          scene_31
     00125386  ___func_scene_32_actors            scene_32_actors
     00125386  _scene_32_actors                   scene_32_actors
     001253EA  ___func_scene_32_projectiles       scene_32_projectiles
     001253EA  _scene_32_projectiles              scene_32_projectiles
     00125401  ___func_scene_32_sprites           scene_32_sprites
     00125401  _scene_32_sprites                  scene_32_sprites
     0012540A  ___func_scene_32_triggers          scene_32_triggers
     0012540A  _scene_32_triggers                 scene_32_triggers
     00125412  ___func_scene_32                   scene_32
     00125412  _scene_32                          scene_32
     0012544C  ___func_scene_33                   scene_33
     0012544C  _scene_33                          scene_33
     00125486  ___func_scene_34_actors            scene_34_actors
     00125486  _scene_34_actors                   scene_34_actors
     001254EA  ___func_scene_34_projectiles       scene_34_projectiles
     001254EA  _scene_34_projectiles              scene_34_projectiles
     00125501  ___func_scene_34_sprites           scene_34_sprites
     00125501  _scene_34_sprites                  scene_34_sprites
ASxxxx Linker V03.00 + NoICE + sdld,  page 74.
Hexadecimal  [32-Bits]

Area                                    Addr        Size        Decimal Bytes (Attributes)
--------------------------------        ----        ----        ------- ----- ------------
_CODE_18                            00124000    000029B1 =       10673. bytes (REL,CON)

      Value  Global                              Global Defined In Module
      -----  --------------------------------   ------------------------
     0012550A  ___func_scene_34_triggers          scene_34_triggers
     0012550A  _scene_34_triggers                 scene_34_triggers
     00125512  ___func_scene_34                   scene_34
     00125512  _scene_34                          scene_34
     0012554C  ___func_scene_35                   scene_35
     0012554C  _scene_35                          scene_35
     00125586  ___func_scene_36_actors            scene_36_actors
     00125586  _scene_36_actors                   scene_36_actors
     001255EA  ___func_scene_36_projectiles       scene_36_projectiles
     001255EA  _scene_36_projectiles              scene_36_projectiles
     00125601  ___func_scene_36_sprites           scene_36_sprites
     00125601  _scene_36_sprites                  scene_36_sprites
     0012560A  ___func_scene_36_triggers          scene_36_triggers
     0012560A  _scene_36_triggers                 scene_36_triggers
     00125612  ___func_scene_36                   scene_36
     00125612  _scene_36                          scene_36
     0012564C  ___func_scene_37                   scene_37
     0012564C  _scene_37                          scene_37
     00125686  ___func_scene_38                   scene_38
     00125686  _scene_38                          scene_38
     001256C0  ___func_scene_39_actors            scene_39_actors
     001256C0  _scene_39_actors                   scene_39_actors
     001256F2  ___func_scene_39                   scene_39
     001256F2  _scene_39                          scene_39
     0012572C  ___func_scene_4                    scene_4
     0012572C  _scene_4                           scene_4
     00125766  ___func_scene_40_actors            scene_40_actors
     00125766  _scene_40_actors                   scene_40_actors
     00125798  ___func_scene_40                   scene_40
     00125798  _scene_40                          scene_40
     001257D2  ___func_scene_41_actors            scene_41_actors
     001257D2  _scene_41_actors                   scene_41_actors
     00125804  ___func_scene_41                   scene_41
     00125804  _scene_41                          scene_41
     0012583E  ___func_scene_42                   scene_42
     0012583E  _scene_42                          scene_42
     00125878  ___func_scene_5                    scene_5
     00125878  _scene_5                           scene_5
     001258B2  ___func_scene_6_actors             scene_6_actors
     001258B2  _scene_6_actors                    scene_6_actors
     001258E4  ___func_scene_6                    scene_6
     001258E4  _scene_6                           scene_6
     0012591E  ___func_scene_7                    scene_7
     0012591E  _scene_7                           scene_7
     00125958  ___func_scene_8_projectiles        scene_8_projectiles
     00125958  _scene_8_projectiles               scene_8_projectiles
     0012596F  ___func_scene_8_triggers           scene_8_triggers
     0012596F  _scene_8_triggers                  scene_8_triggers
     00125977  ___func_scene_8                    scene_8
     00125977  _scene_8                           scene_8
     001259B1  ___func_scene_9                    scene_9
ASxxxx Linker V03.00 + NoICE + sdld,  page 75.
Hexadecimal  [32-Bits]

Area                                    Addr        Size        Decimal Bytes (Attributes)
--------------------------------        ----        ----        ------- ----- ------------
_CODE_18                            00124000    000029B1 =       10673. bytes (REL,CON)

      Value  Global                              Global Defined In Module
      -----  --------------------------------   ------------------------
     001259B1  _scene_9                           scene_9
     001259EB  _script_engine_init                
     00125A33  _script_input_1                    script_input_1
     00125A62  _script_s10a1_update               script_s10a1_update
     00125AC7  _script_s12a0_update               script_s12a0_update
     00125B2D  _script_s16a0_update               script_s16a0_update
     00125B93  _script_s18a0_update               script_s18a0_update
     00125BF9  _script_s2_init                    script_s2_init
     00125C2B  _script_s20a0_update               script_s20a0_update
     00125C91  _script_s24a0_update               script_s24a0_update
     00125CF7  _script_s26a0_update               script_s26a0_update
     00125D5D  _script_s28a0_update               script_s28a0_update
     00125DC3  _script_s2a0_update                script_s2a0_update
     00125DFB  _script_s3_init                    script_s3_init
     00125E25  _script_s32a0_update               script_s32a0_update
     00125E8B  _script_s34a0_update               script_s34a0_update
     00125EF1  _script_s36a0_update               script_s36a0_update
     00125F57  _script_s39_init                   script_s39_init
     00125F81  _script_s4_init                    script_s4_init
     00125FB3  _script_s40_init                   script_s40_init
     00125FDD  _script_s41_init                   script_s41_init
     00126007  _script_s42_init                   script_s42_init
     00126071  _script_s5_init                    script_s5_init
     001260A3  _script_s6_init                    script_s6_init
     001260CD  _script_s8a0_update                script_s8a0_update
     0012613F  _script_s8a1_update                script_s8a1_update
     001261A4  _script_s8a10_update               script_s8a10_update
     001261EC  _script_s8a12_update               script_s8a12_update
     00126234  _script_s8a14_update               script_s8a14_update
     0012627C  _script_s8a17_update               script_s8a17_update
     0012628A  _script_s8a18_update               script_s8a18_update
     001262D2  _script_s8a19_update               script_s8a19_update
     0012631A  _script_s8a3_update                script_s8a3_update
     00126362  _script_s8a6_update                script_s8a6_update
     001263AA  _script_s8a7_update                script_s8a7_update
     001263F2  _script_s8a9_update                script_s8a9_update
     0012643A  ___func_spritesheet_1              spritesheet_1
     0012643A  _spritesheet_1_metasprite_0        spritesheet_1
     00126446  _spritesheet_1_metasprite_1        spritesheet_1
     00126452  _spritesheet_1_metasprites         spritesheet_1
     00126456  _spritesheet_1_animations          spritesheet_1
     00126466  _spritesheet_1_animations_lookup   spritesheet_1
     00126468  _spritesheet_1                     spritesheet_1
     0012647B  ___func_spritesheet_10             spritesheet_10
     0012647B  _spritesheet_10_metasprite_0       spritesheet_10
     00126487  _spritesheet_10_metasprite_1       spritesheet_10
     00126493  _spritesheet_10_metasprites        spritesheet_10
     00126497  _spritesheet_10_animations         spritesheet_10
     001264A7  _spritesheet_10_animations_looku   spritesheet_10
     001264A9  _spritesheet_10                    spritesheet_10
     001264BC  ___func_spritesheet_12             spritesheet_12
ASxxxx Linker V03.00 + NoICE + sdld,  page 76.
Hexadecimal  [32-Bits]

Area                                    Addr        Size        Decimal Bytes (Attributes)
--------------------------------        ----        ----        ------- ----- ------------
_CODE_18                            00124000    000029B1 =       10673. bytes (REL,CON)

      Value  Global                              Global Defined In Module
      -----  --------------------------------   ------------------------
     001264BC  _spritesheet_12_metasprite_0       spritesheet_12
     001264C8  _spritesheet_12_metasprite_1       spritesheet_12
     001264D4  _spritesheet_12_metasprites        spritesheet_12
     001264D8  _spritesheet_12_animations         spritesheet_12
     001264E8  _spritesheet_12_animations_looku   spritesheet_12
     001264EA  _spritesheet_12                    spritesheet_12
     001264FD  ___func_spritesheet_14             spritesheet_14
     001264FD  _spritesheet_14_metasprite_0       spritesheet_14
     00126515  _spritesheet_14_metasprites        spritesheet_14
     00126517  _spritesheet_14_animations         spritesheet_14
     00126527  _spritesheet_14_animations_looku   spritesheet_14
     00126529  _spritesheet_14                    spritesheet_14
     0012653C  ___func_spritesheet_17             spritesheet_17
     0012653C  _spritesheet_17_metasprite_0       spritesheet_17
     00126548  _spritesheet_17_metasprite_1       spritesheet_17
     00126554  _spritesheet_17_metasprites        spritesheet_17
     00126558  _spritesheet_17_animations         spritesheet_17
     00126568  _spritesheet_17_animations_looku   spritesheet_17
     0012656A  _spritesheet_17                    spritesheet_17
     0012657D  ___func_spritesheet_18             spritesheet_18
     0012657D  _spritesheet_18_metasprite_0       spritesheet_18
     00126595  _spritesheet_18_metasprites        spritesheet_18
     00126597  _spritesheet_18_animations         spritesheet_18
     001265A7  _spritesheet_18_animations_looku   spritesheet_18
     001265A9  _spritesheet_18                    spritesheet_18
     001265BC  ___func_spritesheet_19             spritesheet_19
     001265BC  _spritesheet_19_metasprite_0       spritesheet_19
     001265D4  _spritesheet_19_metasprites        spritesheet_19
     001265D6  _spritesheet_19_animations         spritesheet_19
     001265E6  _spritesheet_19_animations_looku   spritesheet_19
     001265E8  _spritesheet_19                    spritesheet_19
     001265FB  ___func_spritesheet_2              spritesheet_2
     001265FB  _spritesheet_2_metasprite_0        spritesheet_2
     00126607  _spritesheet_2_metasprite_1        spritesheet_2
     00126613  _spritesheet_2_metasprites         spritesheet_2
     00126617  _spritesheet_2_animations          spritesheet_2
     00126627  _spritesheet_2_animations_lookup   spritesheet_2
     00126629  _spritesheet_2                     spritesheet_2
     0012663C  ___func_spritesheet_20             spritesheet_20
     0012663C  _spritesheet_20_metasprite_0       spritesheet_20
     00126654  _spritesheet_20_metasprites        spritesheet_20
     00126656  _spritesheet_20_animations         spritesheet_20
     00126666  _spritesheet_20_animations_looku   spritesheet_20
     00126668  _spritesheet_20                    spritesheet_20
     0012667B  ___func_spritesheet_21             spritesheet_21
     0012667B  _spritesheet_21_metasprite_0       spritesheet_21
     00126693  _spritesheet_21_metasprites        spritesheet_21
     00126695  _spritesheet_21_animations         spritesheet_21
     001266A5  _spritesheet_21_animations_looku   spritesheet_21
     001266A7  _spritesheet_21                    spritesheet_21
     001266BA  ___func_spritesheet_22             spritesheet_22
ASxxxx Linker V03.00 + NoICE + sdld,  page 77.
Hexadecimal  [32-Bits]

Area                                    Addr        Size        Decimal Bytes (Attributes)
--------------------------------        ----        ----        ------- ----- ------------
_CODE_18                            00124000    000029B1 =       10673. bytes (REL,CON)

      Value  Global                              Global Defined In Module
      -----  --------------------------------   ------------------------
     001266BA  _spritesheet_22_metasprite_0       spritesheet_22
     001266D2  _spritesheet_22_metasprites        spritesheet_22
     001266D4  _spritesheet_22_animations         spritesheet_22
     001266E4  _spritesheet_22_animations_looku   spritesheet_22
     001266E6  _spritesheet_22                    spritesheet_22
     001266F9  ___func_spritesheet_23             spritesheet_23
     001266F9  _spritesheet_23_metasprite_0       spritesheet_23
     00126711  _spritesheet_23_metasprites        spritesheet_23
     00126713  _spritesheet_23_animations         spritesheet_23
     00126723  _spritesheet_23_animations_looku   spritesheet_23
     00126725  _spritesheet_23                    spritesheet_23
     00126738  ___func_spritesheet_24             spritesheet_24
     00126738  _spritesheet_24_metasprite_0       spritesheet_24
     00126750  _spritesheet_24_metasprites        spritesheet_24
     00126752  _spritesheet_24_animations         spritesheet_24
     00126762  _spritesheet_24_animations_looku   spritesheet_24
     00126764  _spritesheet_24                    spritesheet_24
     00126777  ___func_spritesheet_25             spritesheet_25
     00126777  _spritesheet_25_metasprite_0       spritesheet_25
     0012678F  _spritesheet_25_metasprites        spritesheet_25
     00126791  _spritesheet_25_animations         spritesheet_25
     001267A1  _spritesheet_25_animations_looku   spritesheet_25
     001267A3  _spritesheet_25                    spritesheet_25
     001267B6  ___func_spritesheet_26             spritesheet_26
     001267B6  _spritesheet_26_metasprite_0       spritesheet_26
     001267CE  _spritesheet_26_metasprites        spritesheet_26
     001267D0  _spritesheet_26_animations         spritesheet_26
     001267E0  _spritesheet_26_animations_looku   spritesheet_26
     001267E2  _spritesheet_26                    spritesheet_26
     001267F5  ___func_spritesheet_27             spritesheet_27
     001267F5  _spritesheet_27_metasprite_0       spritesheet_27
     0012680D  _spritesheet_27_metasprites        spritesheet_27
     0012680F  _spritesheet_27_animations         spritesheet_27
     0012681F  _spritesheet_27_animations_looku   spritesheet_27
     00126821  _spritesheet_27                    spritesheet_27
     00126834  ___func_spritesheet_3              spritesheet_3
     00126834  _spritesheet_3_metasprite_0        spritesheet_3
     00126840  _spritesheet_3_metasprite_1        spritesheet_3
     0012684C  _spritesheet_3_metasprites         spritesheet_3
     00126850  _spritesheet_3_animations          spritesheet_3
     00126860  _spritesheet_3_animations_lookup   spritesheet_3
     00126862  _spritesheet_3                     spritesheet_3
     00126875  ___func_spritesheet_5              spritesheet_5
     00126875  _spritesheet_5_metasprite_0        spritesheet_5
     0012687D  _spritesheet_5_metasprite_1        spritesheet_5
     00126885  _spritesheet_5_metasprites         spritesheet_5
     00126889  _spritesheet_5_animations          spritesheet_5
     00126899  _spritesheet_5_animations_lookup   spritesheet_5
     0012689B  _spritesheet_5                     spritesheet_5
     001268AE  ___func_spritesheet_6              spritesheet_6
     001268AE  _spritesheet_6_metasprite_0        spritesheet_6
ASxxxx Linker V03.00 + NoICE + sdld,  page 78.
Hexadecimal  [32-Bits]

Area                                    Addr        Size        Decimal Bytes (Attributes)
--------------------------------        ----        ----        ------- ----- ------------
_CODE_18                            00124000    000029B1 =       10673. bytes (REL,CON)

      Value  Global                              Global Defined In Module
      -----  --------------------------------   ------------------------
     001268C6  _spritesheet_6_metasprite_1        spritesheet_6
     001268CA  _spritesheet_6_metasprites         spritesheet_6
     001268CE  _spritesheet_6_animations          spritesheet_6
     001268DE  _spritesheet_6_animations_lookup   spritesheet_6
     001268E0  _spritesheet_6                     spritesheet_6
     001268F3  ___func_spritesheet_8              spritesheet_8
     001268F3  _spritesheet_8_metasprite_0        spritesheet_8
     001268FF  _spritesheet_8_metasprite_1        spritesheet_8
     0012690B  _spritesheet_8_metasprites         spritesheet_8
     0012690F  _spritesheet_8_animations          spritesheet_8
     0012691F  _spritesheet_8_animations_lookup   spritesheet_8
     00126921  _spritesheet_8                     spritesheet_8
     00126934  _spritesheet_none_metasprite       spritesheet_none
     00126938  _spritesheet_none_metasprites      spritesheet_none
     0012693A  _spritesheet_none                  spritesheet_none
     0012694D  ___func_tileset_14                 tileset_14
     0012694D  _tileset_14                        tileset_14
     0012696F  ___func_tileset_19                 tileset_19
     0012696F  _tileset_19                        tileset_19
ASxxxx Linker V03.00 + NoICE + sdld,  page 79.
Hexadecimal  [32-Bits]

Area                                    Addr        Size        Decimal Bytes (Attributes)
--------------------------------        ----        ----        ------- ----- ------------
_CODE_11                            000B4000    00004000 =       16384. bytes (REL,CON)

      Value  Global                              Global Defined In Module
      -----  --------------------------------   ------------------------
     000B4000  ___func_cursor_image               cursor_image
     000B4000  _cursor_image                      cursor_image
     000B4010  ___func_scene_11_collisions        scene_11_collisions
     000B4010  _scene_11_collisions               scene_11_collisions
     000B4178  ___func_scene_3_sprites            scene_3_sprites
     000B4178  _scene_3_sprites                   scene_3_sprites
     000B417B  ___func_scene_39_sprites           scene_39_sprites
     000B417B  _scene_39_sprites                  scene_39_sprites
     000B417E  ___func_tilemap_attr_10            tilemap_attr_10
     000B417E  _tilemap_attr_10                   tilemap_attr_10
     000B50F6  ___func_tilemap_attr_11            tilemap_attr_11
     000B50F6  _tilemap_attr_11                   tilemap_attr_11
     000B606E  ___func_tilemap_attr_12            tilemap_attr_12
     000B606E  _tilemap_attr_12                   tilemap_attr_12
     000B6FE6  ___func_tilemap_attr_13            tilemap_attr_13
     000B6FE6  _tilemap_attr_13                   tilemap_attr_13
     000B7F5E  ___func_tileset_20                 tileset_20
     000B7F5E  _tileset_20                        tileset_20
ASxxxx Linker V03.00 + NoICE + sdld,  page 80.
Hexadecimal  [32-Bits]

Area                                    Addr        Size        Decimal Bytes (Attributes)
--------------------------------        ----        ----        ------- ----- ------------
_CODE_13                            000D4000    00003FFF =       16383. bytes (REL,CON)

      Value  Global                              Global Defined In Module
      -----  --------------------------------   ------------------------
     000D4000  ___func_font_0                     font_0
     000D4DF0  _font_0                            font_0
     000D4DF8  ___func_scene_8_sprites            scene_8_sprites
     000D4DF8  _scene_8_sprites                   scene_8_sprites
     000D4E13  ___func_tilemap_attr_7             tilemap_attr_7
     000D4E13  _tilemap_attr_7                    tilemap_attr_7
     000D5D8B  ___func_tilemap_attr_8             tilemap_attr_8
     000D5D8B  _tilemap_attr_8                    tilemap_attr_8
     000D6D03  ___func_tilemap_attr_9             tilemap_attr_9
     000D6D03  _tilemap_attr_9                    tilemap_attr_9
     000D7C7B  ___func_tileset_1                  tileset_1
     000D7C7B  _tileset_1                         tileset_1
     000D7EFD  ___func_tileset_18                 tileset_18
     000D7EFD  _tileset_18                        tileset_18

ASxxxx Linker V03.00 + NoICE + sdld,  page 81.
Hexadecimal  [32-Bits]

Area                                    Addr        Size        Decimal Bytes (Attributes)
--------------------------------        ----        ----        ------- ----- ------------
_CODE_9                             00094000    00004000 =       16384. bytes (REL,CON)

      Value  Global                              Global Defined In Module
      -----  --------------------------------   ------------------------
     00094000  ___func_scene_0_collisions         scene_0_collisions
     00094000  _scene_0_collisions                scene_0_collisions
     00094168  ___func_scene_12_sprites           scene_12_sprites
     00094168  _scene_12_sprites                  scene_12_sprites
     00094171  _script_s0_init                    script_s0_init
     00094220  ___func_tilemap_27                 tilemap_27
     00094220  _tilemap_27                        tilemap_27
     00095198  ___func_tilemap_28                 tilemap_28
     00095198  _tilemap_28                        tilemap_28
     00096110  ___func_tilemap_29                 tilemap_29
     00096110  _tilemap_29                        tilemap_29
     00097088  ___func_tilemap_30                 tilemap_30
     00097088  _tilemap_30                        tilemap_30

ASxxxx Linker V03.00 + NoICE + sdld,  page 82.
Hexadecimal  [32-Bits]

Area                                    Addr        Size        Decimal Bytes (Attributes)
--------------------------------        ----        ----        ------- ----- ------------
_CODE_5                             00054000    00003FFE =       16382. bytes (REL,CON)

      Value  Global                              Global Defined In Module
      -----  --------------------------------   ------------------------
     00054000  ___func_scene_10_actors            scene_10_actors
     00054000  _scene_10_actors                   scene_10_actors
     000541F4  ___func_scene_10_collisions        scene_10_collisions
     000541F4  _scene_10_collisions               scene_10_collisions
     0005516C  ___func_scene_12_collisions        scene_12_collisions
     0005516C  _scene_12_collisions               scene_12_collisions
     000560E4  ___func_scene_16_collisions        scene_16_collisions
     000560E4  _scene_16_collisions               scene_16_collisions
     0005705C  ___func_scene_18_collisions        scene_18_collisions
     0005705C  _scene_18_collisions               scene_18_collisions
     00057FD4  _script_s1_init                    script_s1_init

ASxxxx Linker V03.00 + NoICE + sdld,  page 83.
Hexadecimal  [32-Bits]

Area                                    Addr        Size        Decimal Bytes (Attributes)
--------------------------------        ----        ----        ------- ----- ------------
_CODE_15                            000F4000    00004000 =       16384. bytes (REL,CON)

      Value  Global                              Global Defined In Module
      -----  --------------------------------   ------------------------
     000F4000  ___func_scene_14_collisions        scene_14_collisions
     000F4000  _scene_14_collisions               scene_14_collisions
     000F4168  ___func_scene_15_collisions        scene_15_collisions
     000F4168  _scene_15_collisions               scene_15_collisions
     000F42D0  ___func_scene_17_collisions        scene_17_collisions
     000F42D0  _scene_17_collisions               scene_17_collisions
     000F4438  ___func_scene_19_collisions        scene_19_collisions
     000F4438  _scene_19_collisions               scene_19_collisions
     000F45A0  ___func_scene_2_collisions         scene_2_collisions
     000F45A0  _scene_2_collisions                scene_2_collisions
     000F4708  ___func_scene_21_collisions        scene_21_collisions
     000F4708  _scene_21_collisions               scene_21_collisions
     000F4870  ___func_scene_22_collisions        scene_22_collisions
     000F4870  _scene_22_collisions               scene_22_collisions
     000F49D8  ___func_scene_23_collisions        scene_23_collisions
     000F49D8  _scene_23_collisions               scene_23_collisions
     000F4B40  ___func_scene_25_collisions        scene_25_collisions
     000F4B40  _scene_25_collisions               scene_25_collisions
     000F4CA8  ___func_scene_27_collisions        scene_27_collisions
     000F4CA8  _scene_27_collisions               scene_27_collisions
     000F4E10  ___func_scene_41_sprites           scene_41_sprites
     000F4E10  _scene_41_sprites                  scene_41_sprites
     000F4E13  ___func_scene_8_actors             scene_8_actors
     000F4E13  _scene_8_actors                    scene_8_actors
     000F51FB  _script_s3a0_update                script_s3a0_update
     000F5423  _script_s8_init                    script_s8_init
     000F5542  ___func_tileset_0                  tileset_0
     000F5542  _tileset_0                         tileset_0
     000F5A64  ___func_tileset_10                 tileset_10
     000F5A64  _tileset_10                        tileset_10
     000F60A6  ___func_tileset_12                 tileset_12
     000F60A6  _tileset_12                        tileset_12
     000F6788  ___func_tileset_13                 tileset_13
     000F6788  _tileset_13                        tileset_13
     000F704A  ___func_tileset_2                  tileset_2
     000F704A  _tileset_2                         tileset_2
     000F748C  ___func_tileset_3                  tileset_3
     000F748C  _tileset_3                         tileset_3
     000F793E  ___func_tileset_5                  tileset_5
     000F793E  _tileset_5                         tileset_5

ASxxxx Linker V03.00 + NoICE + sdld,  page 84.
Hexadecimal  [32-Bits]

Area                                    Addr        Size        Decimal Bytes (Attributes)
--------------------------------        ----        ----        ------- ----- ------------
_CODE_17                            00114000    00004000 =       16384. bytes (REL,CON)

      Value  Global                              Global Defined In Module
      -----  --------------------------------   ------------------------
     00114000  ___func_scene_16_actors            scene_16_actors
     00114000  _scene_16_actors                   scene_16_actors
     001140FA  ___func_scene_6_sprites            scene_6_sprites
     001140FA  _scene_6_sprites                   scene_6_sprites
     001140FD  _script_input_0                    script_input_0
     001141E0  _script_s10_init                   script_s10_init
     001142AC  _script_s10a0_update               script_s10a0_update
     0011431E  _script_s10t0_interact             script_s10t0_interact
     001143E0  _script_s11_init                   script_s11_init
     0011445A  _script_s12_init                   script_s12_init
     001144DA  _script_s12t0_interact             script_s12t0_interact
     0011459C  _script_s15_init                   script_s15_init
     00114616  _script_s16_init                   script_s16_init
     00114696  _script_s16t0_interact             script_s16t0_interact
     00114758  _script_s17_init                   script_s17_init
     001147D2  _script_s18_init                   script_s18_init
     00114852  _script_s18t0_interact             script_s18t0_interact
     00114914  _script_s19_init                   script_s19_init
     0011498E  _script_s20_init                   script_s20_init
     00114A0E  _script_s20t0_interact             script_s20t0_interact
     00114AD0  _script_s23_init                   script_s23_init
     00114B4A  _script_s24_init                   script_s24_init
     00114BCA  _script_s24t0_interact             script_s24t0_interact
     00114C8C  _script_s25_init                   script_s25_init
     00114D06  _script_s26_init                   script_s26_init
     00114D86  _script_s26t0_interact             script_s26t0_interact
     00114E48  _script_s27_init                   script_s27_init
     00114EC2  _script_s28_init                   script_s28_init
     00114F42  _script_s28t0_interact             script_s28t0_interact
     00115004  _script_s31_init                   script_s31_init
     0011507E  _script_s32_init                   script_s32_init
     001150FE  _script_s32t0_interact             script_s32t0_interact
     001151C0  _script_s33_init                   script_s33_init
     0011523A  _script_s34_init                   script_s34_init
     001152BA  _script_s34t0_interact             script_s34t0_interact
     0011537C  _script_s35_init                   script_s35_init
     001153F6  _script_s36_init                   script_s36_init
     00115476  _script_s36t0_interact             script_s36t0_interact
     00115538  _script_s7_init                    script_s7_init
     001155B4  _script_s8a10_interact             script_s8a10_interact
     00115689  _script_s8a12_interact             script_s8a12_interact
     0011575E  _script_s8a13_interact             script_s8a13_interact
     0011583C  _script_s8a13_update               script_s8a13_update
     0011590E  _script_s8a14_interact             script_s8a14_interact
     001159E3  _script_s8a15_interact             script_s8a15_interact
     00115AC1  _script_s8a15_update               script_s8a15_update
     00115B93  _script_s8a16_interact             script_s8a16_interact
     00115C71  _script_s8a16_update               script_s8a16_update
     00115D43  _script_s8a17_interact             script_s8a17_interact
     00115E17  _script_s8a18_interact             script_s8a18_interact
ASxxxx Linker V03.00 + NoICE + sdld,  page 85.
Hexadecimal  [32-Bits]

Area                                    Addr        Size        Decimal Bytes (Attributes)
--------------------------------        ----        ----        ------- ----- ------------
_CODE_17                            00114000    00004000 =       16384. bytes (REL,CON)

      Value  Global                              Global Defined In Module
      -----  --------------------------------   ------------------------
     00115EEC  _script_s8a19_interact             script_s8a19_interact
     00115FC1  _script_s8a2_interact              script_s8a2_interact
     0011607B  _script_s8a3_interact              script_s8a3_interact
     00116150  _script_s8a6_interact              script_s8a6_interact
     00116225  _script_s8a7_interact              script_s8a7_interact
     001162FA  _script_s8a8_interact              script_s8a8_interact
     001163D8  _script_s8a8_update                script_s8a8_update
     001164AA  _script_s8a9_interact              script_s8a9_interact
     0011657F  _script_s8t0_interact              script_s8t0_interact
     00116641  _script_s9_init                    script_s9_init
     001166BB  ___func_spritesheet_0              spritesheet_0
     001166BB  _spritesheet_0_metasprite_0        spritesheet_0
     001166C7  _spritesheet_0_metasprites         spritesheet_0
     001166C9  _spritesheet_0_animations          spritesheet_0
     001166D9  _spritesheet_0_animations_lookup   spritesheet_0
     001166DB  _spritesheet_0                     spritesheet_0
     001166EE  ___func_spritesheet_13             spritesheet_13
     001166EE  _spritesheet_13_metasprite_0       spritesheet_13
     001166F2  _spritesheet_13_metasprite_1       spritesheet_13
     00116702  _spritesheet_13_metasprite_2       spritesheet_13
     00116712  _spritesheet_13_metasprite_3       spritesheet_13
     00116722  _spritesheet_13_metasprite_4       spritesheet_13
     00116732  _spritesheet_13_metasprites        spritesheet_13
     0011673C  _spritesheet_13_animations         spritesheet_13
     0011674C  _spritesheet_13_animations_looku   spritesheet_13
     0011674E  _spritesheet_13                    spritesheet_13
     00116761  ___func_spritesheet_16             spritesheet_16
     00116761  _spritesheet_16_metasprite_0       spritesheet_16
     00116765  _spritesheet_16_metasprite_1       spritesheet_16
     00116775  _spritesheet_16_metasprite_2       spritesheet_16
     00116785  _spritesheet_16_metasprite_3       spritesheet_16
     00116795  _spritesheet_16_metasprite_4       spritesheet_16
     001167A5  _spritesheet_16_metasprites        spritesheet_16
     001167AF  _spritesheet_16_animations         spritesheet_16
     001167BF  _spritesheet_16_animations_looku   spritesheet_16
     001167C1  _spritesheet_16                    spritesheet_16
     001167D4  ___func_spritesheet_4              spritesheet_4
     001167D4  _spritesheet_4_metasprite_0        spritesheet_4
     001167E8  _spritesheet_4_metasprite_1        spritesheet_4
     001167FC  _spritesheet_4_metasprite_2        spritesheet_4
     00116810  _spritesheet_4_metasprite_3        spritesheet_4
     00116824  _spritesheet_4_metasprite_4        spritesheet_4
     00116830  _spritesheet_4_metasprite_5        spritesheet_4
     0011683C  _spritesheet_4_metasprite_6        spritesheet_4
     00116848  _spritesheet_4_metasprite_7        spritesheet_4
     00116854  _spritesheet_4_metasprite_8        spritesheet_4
     00116860  _spritesheet_4_metasprite_9        spritesheet_4
     0011686C  _spritesheet_4_metasprites         spritesheet_4
     00116896  _spritesheet_4_animations          spritesheet_4
     001168A6  _spritesheet_4_animations_lookup   spritesheet_4
     001168A8  _spritesheet_4                     spritesheet_4
ASxxxx Linker V03.00 + NoICE + sdld,  page 86.
Hexadecimal  [32-Bits]

Area                                    Addr        Size        Decimal Bytes (Attributes)
--------------------------------        ----        ----        ------- ----- ------------
_CODE_17                            00114000    00004000 =       16384. bytes (REL,CON)

      Value  Global                              Global Defined In Module
      -----  --------------------------------   ------------------------
     001168BB  ___func_spritesheet_9              spritesheet_9
     001168BB  _spritesheet_9_metasprite_0        spritesheet_9
     001168BF  _spritesheet_9_metasprite_1        spritesheet_9
     001168D3  _spritesheet_9_metasprite_2        spritesheet_9
     001168E7  _spritesheet_9_metasprite_3        spritesheet_9
     001168FB  _spritesheet_9_metasprite_4        spritesheet_9
     0011690F  _spritesheet_9_metasprites         spritesheet_9
     00116919  _spritesheet_9_animations          spritesheet_9
     00116929  _spritesheet_9_animations_lookup   spritesheet_9
     0011692B  _spritesheet_9                     spritesheet_9
     0011693E  ___func_tilemap_attr_1             tilemap_attr_1
     0011693E  _tilemap_attr_1                    tilemap_attr_1
     00116AA6  ___func_tilemap_attr_17            tilemap_attr_17
     00116AA6  _tilemap_attr_17                   tilemap_attr_17
     00116C0E  ___func_tilemap_attr_18            tilemap_attr_18
     00116C0E  _tilemap_attr_18                   tilemap_attr_18
     00116D76  ___func_tilemap_attr_2             tilemap_attr_2
     00116D76  _tilemap_attr_2                    tilemap_attr_2
     00116EDE  ___func_tilemap_attr_3             tilemap_attr_3
     00116EDE  _tilemap_attr_3                    tilemap_attr_3
     00117046  ___func_tilemap_attr_4             tilemap_attr_4
     00117046  _tilemap_attr_4                    tilemap_attr_4
     001171AE  ___func_tilemap_attr_5             tilemap_attr_5
     001171AE  _tilemap_attr_5                    tilemap_attr_5
     00117316  ___func_tileset_15                 tileset_15
     00117316  _tileset_15                        tileset_15
     00117398  ___func_tileset_16                 tileset_16
     00117398  _tileset_16                        tileset_16
     0011741A  ___func_tileset_17                 tileset_17
     0011741A  _tileset_17                        tileset_17
     0011749C  ___func_tileset_21                 tileset_21
     0011749C  _tileset_21                        tileset_21
     0011755E  ___func_tileset_22                 tileset_22
     0011755E  _tileset_22                        tileset_22
     001175E0  ___func_tileset_23                 tileset_23
     001175E0  _tileset_23                        tileset_23
     001176A2  ___func_tileset_24                 tileset_24
     001176A2  _tileset_24                        tileset_24
     00117724  ___func_tileset_25                 tileset_25
     00117724  _tileset_25                        tileset_25
     001177E6  ___func_tileset_26                 tileset_26
     001177E6  _tileset_26                        tileset_26
     00117868  ___func_tileset_30                 tileset_30
     00117868  _tileset_30                        tileset_30
     0011792A  ___func_tileset_31                 tileset_31
     0011792A  _tileset_31                        tileset_31
     001179AC  ___func_tileset_32                 tileset_32
     001179AC  _tileset_32                        tileset_32
     00117A4E  ___func_tileset_33                 tileset_33
     00117A4E  _tileset_33                        tileset_33
     00117AF0  ___func_tileset_34                 tileset_34
ASxxxx Linker V03.00 + NoICE + sdld,  page 87.
Hexadecimal  [32-Bits]

Area                                    Addr        Size        Decimal Bytes (Attributes)
--------------------------------        ----        ----        ------- ----- ------------
_CODE_17                            00114000    00004000 =       16384. bytes (REL,CON)

      Value  Global                              Global Defined In Module
      -----  --------------------------------   ------------------------
     00117AF0  _tileset_34                        tileset_34
     00117B92  ___func_tileset_35                 tileset_35
     00117B92  _tileset_35                        tileset_35
     00117C34  ___func_tileset_36                 tileset_36
     00117C34  _tileset_36                        tileset_36
     00117CD6  ___func_tileset_37                 tileset_37
     00117CD6  _tileset_37                        tileset_37
     00117D78  ___func_tileset_38                 tileset_38
     00117D78  _tileset_38                        tileset_38
     00117E1A  ___func_tileset_39                 tileset_39
     00117E1A  _tileset_39                        tileset_39
     00117EBC  ___func_tileset_40                 tileset_40
     00117EBC  _tileset_40                        tileset_40
     00117F5E  ___func_tileset_41                 tileset_41
     00117F5E  _tileset_41                        tileset_41

ASxxxx Linker V03.00 + NoICE + sdld,  page 88.
Hexadecimal  [32-Bits]

Area                                    Addr        Size        Decimal Bytes (Attributes)
--------------------------------        ----        ----        ------- ----- ------------
_CODE_8                             00084000    00003FFF =       16383. bytes (REL,CON)

      Value  Global                              Global Defined In Module
      -----  --------------------------------   ------------------------
     00084000  ___func_scene_16_sprites           scene_16_sprites
     00084000  _scene_16_sprites                  scene_16_sprites
     00084012  ___func_scene_2_sprites            scene_2_sprites
     00084012  _scene_2_sprites                   scene_2_sprites
     00084015  _script_s8_p_hit1                  script_s8_p_hit1
     00084196  ___func_spritesheet_15             spritesheet_15
     00084196  _spritesheet_15_metasprite_0       spritesheet_15
     000841A2  _spritesheet_15_metasprite_1       spritesheet_15
     000841B2  _spritesheet_15_metasprite_2       spritesheet_15
     000841C2  _spritesheet_15_metasprite_3       spritesheet_15
     000841CE  _spritesheet_15_metasprite_4       spritesheet_15
     000841DE  _spritesheet_15_metasprite_5       spritesheet_15
     000841EE  _spritesheet_15_metasprites        spritesheet_15
     000841FA  _spritesheet_15_animations         spritesheet_15
     0008420A  _spritesheet_15_animations_looku   spritesheet_15
     0008420C  _spritesheet_15                    spritesheet_15
     0008421F  ___func_tilemap_23                 tilemap_23
     0008421F  _tilemap_23                        tilemap_23
     00085197  ___func_tilemap_24                 tilemap_24
     00085197  _tilemap_24                        tilemap_24
     0008610F  ___func_tilemap_25                 tilemap_25
     0008610F  _tilemap_25                        tilemap_25
     00087087  ___func_tilemap_26                 tilemap_26
     00087087  _tilemap_26                        tilemap_26
ASxxxx Linker V03.00 + NoICE + sdld,  page 89.
Hexadecimal  [32-Bits]

Area                                    Addr        Size        Decimal Bytes (Attributes)
--------------------------------        ----        ----        ------- ----- ------------
_CODE_3                             00034000    00002ADB =       10971. bytes (REL,CON)

      Value  Global                              Global Defined In Module
      -----  --------------------------------   ------------------------
     00034000  _adventure_init                    adventure
     00034015  _adventure_update                  adventure
     0003475D  _logo_init                         logo
     0003476D  _logo_update                       logo
     0003476E  _platform_init                     platform
     00034925  _platform_update                   platform
     00035956  _pointnclick_init                  pointnclick
     0003598F  _pointnclick_update                pointnclick
     00035C9B  _shmup_init                        shmup
     00035D37  _shmup_update                      shmup
     000363CD  _topdown_init                      topdown
     00036464  _topdown_update                    topdown
ASxxxx Linker V03.00 + NoICE + sdld,  page 90.
Hexadecimal  [32-Bits]

Area                                    Addr        Size        Decimal Bytes (Attributes)
--------------------------------        ----        ----        ------- ----- ------------
_HEADER_LCD0                        00000000    00000003 =           3. bytes (ABS,CON)

      Value  Global                              Global Defined In Module
      -----  --------------------------------   ------------------------
ASxxxx Linker V03.00 + NoICE + sdld,  page 91.

Files Linked                              [ module(s) ]

C:\Users\luisc\AppData\Local\Temp/_gbstools/gbdk/lib/small/asxxxx/gb/crt0.o
                                          [ Runtime ]
C:/Users/luisc/AppData/Local/Temp/_gbsbuild/obj/absolute.rel
                                          [ absolute ]
C:/Users/luisc/AppData/Local/Temp/_gbsbuild/obj/actor.rel
                                          [ actor ]
C:/Users/luisc/AppData/Local/Temp/_gbsbuild/obj/bankdata.rel
                                          [ bankdata ]
C:/Users/luisc/AppData/Local/Temp/_gbsbuild/obj/bootstrap.rel
                                          [  ]
C:/Users/luisc/AppData/Local/Temp/_gbsbuild/obj/camera.rel
                                          [ camera ]
C:/Users/luisc/AppData/Local/Temp/_gbsbuild/obj/core.rel
                                          [ core ]
C:/Users/luisc/AppData/Local/Temp/_gbsbuild/obj/crash_handler.rel
                                          [  ]
C:/Users/luisc/AppData/Local/Temp/_gbsbuild/obj/data_manager.rel
                                          [ data_manager ]
C:/Users/luisc/AppData/Local/Temp/_gbsbuild/obj/events.rel
                                          [ events ]
C:/Users/luisc/AppData/Local/Temp/_gbsbuild/obj/fade_manager.rel
                                          [ fade_manager ]
C:/Users/luisc/AppData/Local/Temp/_gbsbuild/obj/flasher_s.rel
                                          [  ]
C:/Users/luisc/AppData/Local/Temp/_gbsbuild/obj/flasher.rel
                                          [ flasher ]
C:/Users/luisc/AppData/Local/Temp/_gbsbuild/obj/game_time.rel
                                          [ game_time ]
C:/Users/luisc/AppData/Local/Temp/_gbsbuild/obj/input.rel
                                          [ input ]
C:/Users/luisc/AppData/Local/Temp/_gbsbuild/obj/interrupt_sio.rel
                                          [  ]
C:/Users/luisc/AppData/Local/Temp/_gbsbuild/obj/interrupt_timer.rel
                                          [  ]
C:/Users/luisc/AppData/Local/Temp/_gbsbuild/obj/interrupts.rel
                                          [ interrupts ]
C:/Users/luisc/AppData/Local/Temp/_gbsbuild/obj/load_save.rel
                                          [ load_save ]
C:/Users/luisc/AppData/Local/Temp/_gbsbuild/obj/math.rel
                                          [ math ]
C:/Users/luisc/AppData/Local/Temp/_gbsbuild/obj/music_manager.rel
                                          [ music_manager ]
C:/Users/luisc/AppData/Local/Temp/_gbsbuild/obj/oam_utils.rel
                                          [ OAM_utils ]
C:/Users/luisc/AppData/Local/Temp/_gbsbuild/obj/palette.rel
                                          [ palette ]
C:/Users/luisc/AppData/Local/Temp/_gbsbuild/obj/parallax.rel
                                          [ parallax ]
C:/Users/luisc/AppData/Local/Temp/_gbsbuild/obj/projectiles.rel
                                          [ projectiles ]
C:/Users/luisc/AppData/Local/Temp/_gbsbuild/obj/sample_player.rel
                                          [ sample_player ]
C:/Users/luisc/AppData/Local/Temp/_gbsbuild/obj/scroll_a.rel
                                          [  ]
C:/Users/luisc/AppData/Local/Temp/_gbsbuild/obj/scroll.rel
                                          [ scroll ]
C:/Users/luisc/AppData/Local/Temp/_gbsbuild/obj/set_tile_submap.rel
                                          [  ]
C:/Users/luisc/AppData/Local/Temp/_gbsbuild/obj/sgb_border.rel
                                          [ sgb_border ]
C:/Users/luisc/AppData/Local/Temp/_gbsbuild/obj/sio.rel
                                          [ sio ]
C:/Users/luisc/AppData/Local/Temp/_gbsbuild/obj/states_caller.rel
                                          [  ]
C:/Users/luisc/AppData/Local/Temp/_gbsbuild/obj/system.rel
                                          [ system ]
C:/Users/luisc/AppData/Local/Temp/_gbsbuild/obj/trigger.rel
                                          [ trigger ]
C:/Users/luisc/AppData/Local/Temp/_gbsbuild/obj/ui_a.rel
                                          [  ]
C:/Users/luisc/AppData/Local/Temp/_gbsbuild/obj/ui.rel
                                          [ ui ]
C:/Users/luisc/AppData/Local/Temp/_gbsbuild/obj/vm_actor.rel
                                          [ vm_actor ]
C:/Users/luisc/AppData/Local/Temp/_gbsbuild/obj/vm_camera.rel
                                          [ vm_camera ]
C:/Users/luisc/AppData/Local/Temp/_gbsbuild/obj/vm_gameboy.rel
                                          [ vm_gameboy ]
C:/Users/luisc/AppData/Local/Temp/_gbsbuild/obj/vm_instructions.rel
                                          [ vm_instructions ]
C:/Users/luisc/AppData/Local/Temp/_gbsbuild/obj/vm_load_save.rel
                                          [ vm_load_save ]
C:/Users/luisc/AppData/Local/Temp/_gbsbuild/obj/vm_math.rel
                                          [ vm_math ]
C:/Users/luisc/AppData/Local/Temp/_gbsbuild/obj/vm_music.rel
                                          [ vm_music ]
C:/Users/luisc/AppData/Local/Temp/_gbsbuild/obj/vm_palette.rel
                                          [ vm_palette ]
C:/Users/luisc/AppData/Local/Temp/_gbsbuild/obj/vm_projectiles.rel
                                          [ vm_projectiles ]
C:/Users/luisc/AppData/Local/Temp/_gbsbuild/obj/vm_rtc.rel
                                          [ vm_rtc ]
C:/Users/luisc/AppData/Local/Temp/_gbsbuild/obj/vm_scene.rel
                                          [ vm_scene ]
C:/Users/luisc/AppData/Local/Temp/_gbsbuild/obj/vm_sgb.rel
                                          [ vm_sgb ]
C:/Users/luisc/AppData/Local/Temp/_gbsbuild/obj/vm_sio.rel
                                          [ vm_sio ]
C:/Users/luisc/AppData/Local/Temp/_gbsbuild/obj/vm_ui_a.rel
                                          [ vm_ui_a ]
C:/Users/luisc/AppData/Local/Temp/_gbsbuild/obj/vm_ui.rel
                                          [ vm_ui ]
C:/Users/luisc/AppData/Local/Temp/_gbsbuild/obj/vm.rel
                                          [ vm ]
C:/Users/luisc/AppData/Local/Temp/_gbsbuild/obj/background_0.rel
                                          [ background_0 ]
C:/Users/luisc/AppData/Local/Temp/_gbsbuild/obj/background_1.rel
                                          [ background_1 ]
C:/Users/luisc/AppData/Local/Temp/_gbsbuild/obj/background_10.rel
                                          [ background_10 ]
C:/Users/luisc/AppData/Local/Temp/_gbsbuild/obj/background_11.rel
                                          [ background_11 ]
C:/Users/luisc/AppData/Local/Temp/_gbsbuild/obj/background_12.rel
                                          [ background_12 ]
C:/Users/luisc/AppData/Local/Temp/_gbsbuild/obj/background_13.rel
                                          [ background_13 ]
C:/Users/luisc/AppData/Local/Temp/_gbsbuild/obj/background_14.rel
                                          [ background_14 ]
C:/Users/luisc/AppData/Local/Temp/_gbsbuild/obj/background_15.rel
                                          [ background_15 ]
C:/Users/luisc/AppData/Local/Temp/_gbsbuild/obj/background_16.rel
                                          [ background_16 ]
C:/Users/luisc/AppData/Local/Temp/_gbsbuild/obj/background_17.rel
                                          [ background_17 ]
C:/Users/luisc/AppData/Local/Temp/_gbsbuild/obj/background_18.rel
                                          [ background_18 ]
C:/Users/luisc/AppData/Local/Temp/_gbsbuild/obj/background_19.rel
                                          [ background_19 ]
C:/Users/luisc/AppData/Local/Temp/_gbsbuild/obj/background_2.rel
                                          [ background_2 ]
C:/Users/luisc/AppData/Local/Temp/_gbsbuild/obj/background_20.rel
                                          [ background_20 ]
C:/Users/luisc/AppData/Local/Temp/_gbsbuild/obj/background_21.rel
                                          [ background_21 ]
C:/Users/luisc/AppData/Local/Temp/_gbsbuild/obj/background_22.rel
                                          [ background_22 ]
C:/Users/luisc/AppData/Local/Temp/_gbsbuild/obj/background_23.rel
                                          [ background_23 ]
C:/Users/luisc/AppData/Local/Temp/_gbsbuild/obj/background_24.rel
                                          [ background_24 ]
C:/Users/luisc/AppData/Local/Temp/_gbsbuild/obj/background_25.rel
                                          [ background_25 ]
C:/Users/luisc/AppData/Local/Temp/_gbsbuild/obj/background_26.rel
                                          [ background_26 ]
C:/Users/luisc/AppData/Local/Temp/_gbsbuild/obj/background_27.rel
                                          [ background_27 ]
C:/Users/luisc/AppData/Local/Temp/_gbsbuild/obj/background_28.rel
                                          [ background_28 ]
C:/Users/luisc/AppData/Local/Temp/_gbsbuild/obj/background_29.rel
                                          [ background_29 ]
C:/Users/luisc/AppData/Local/Temp/_gbsbuild/obj/background_3.rel
                                          [ background_3 ]
C:/Users/luisc/AppData/Local/Temp/_gbsbuild/obj/background_30.rel
                                          [ background_30 ]
C:/Users/luisc/AppData/Local/Temp/_gbsbuild/obj/background_31.rel
                                          [ background_31 ]
C:/Users/luisc/AppData/Local/Temp/_gbsbuild/obj/background_32.rel
                                          [ background_32 ]
C:/Users/luisc/AppData/Local/Temp/_gbsbuild/obj/background_33.rel
                                          [ background_33 ]
C:/Users/luisc/AppData/Local/Temp/_gbsbuild/obj/background_34.rel
                                          [ background_34 ]
C:/Users/luisc/AppData/Local/Temp/_gbsbuild/obj/background_35.rel
                                          [ background_35 ]
C:/Users/luisc/AppData/Local/Temp/_gbsbuild/obj/background_36.rel
                                          [ background_36 ]
C:/Users/luisc/AppData/Local/Temp/_gbsbuild/obj/background_37.rel
                                          [ background_37 ]
C:/Users/luisc/AppData/Local/Temp/_gbsbuild/obj/background_38.rel
                                          [ background_38 ]
C:/Users/luisc/AppData/Local/Temp/_gbsbuild/obj/background_4.rel
                                          [ background_4 ]
C:/Users/luisc/AppData/Local/Temp/_gbsbuild/obj/background_5.rel
                                          [ background_5 ]
C:/Users/luisc/AppData/Local/Temp/_gbsbuild/obj/background_6.rel
                                          [ background_6 ]
C:/Users/luisc/AppData/Local/Temp/_gbsbuild/obj/background_7.rel
                                          [ background_7 ]
C:/Users/luisc/AppData/Local/Temp/_gbsbuild/obj/background_8.rel
                                          [ background_8 ]
C:/Users/luisc/AppData/Local/Temp/_gbsbuild/obj/background_9.rel
                                          [ background_9 ]
C:/Users/luisc/AppData/Local/Temp/_gbsbuild/obj/cursor_image.rel
                                          [ cursor_image ]
C:/Users/luisc/AppData/Local/Temp/_gbsbuild/obj/emote_0.rel
                                          [ emote_0 ]
C:/Users/luisc/AppData/Local/Temp/_gbsbuild/obj/font_0.rel
                                          [ font_0 ]
C:/Users/luisc/AppData/Local/Temp/_gbsbuild/obj/frame_image.rel
                                          [ frame_image ]
C:/Users/luisc/AppData/Local/Temp/_gbsbuild/obj/palette_0.rel
                                          [ palette_0 ]
C:/Users/luisc/AppData/Local/Temp/_gbsbuild/obj/palette_1.rel
                                          [ palette_1 ]
C:/Users/luisc/AppData/Local/Temp/_gbsbuild/obj/palette_10.rel
                                          [ palette_10 ]
C:/Users/luisc/AppData/Local/Temp/_gbsbuild/obj/palette_11.rel
                                          [ palette_11 ]
C:/Users/luisc/AppData/Local/Temp/_gbsbuild/obj/palette_12.rel
                                          [ palette_12 ]
C:/Users/luisc/AppData/Local/Temp/_gbsbuild/obj/palette_13.rel
                                          [ palette_13 ]
C:/Users/luisc/AppData/Local/Temp/_gbsbuild/obj/palette_14.rel
                                          [ palette_14 ]
C:/Users/luisc/AppData/Local/Temp/_gbsbuild/obj/palette_15.rel
                                          [ palette_15 ]
C:/Users/luisc/AppData/Local/Temp/_gbsbuild/obj/palette_16.rel
                                          [ palette_16 ]
C:/Users/luisc/AppData/Local/Temp/_gbsbuild/obj/palette_17.rel
                                          [ palette_17 ]
C:/Users/luisc/AppData/Local/Temp/_gbsbuild/obj/palette_18.rel
                                          [ palette_18 ]
C:/Users/luisc/AppData/Local/Temp/_gbsbuild/obj/palette_19.rel
                                          [ palette_19 ]
C:/Users/luisc/AppData/Local/Temp/_gbsbuild/obj/palette_2.rel
                                          [ palette_2 ]
C:/Users/luisc/AppData/Local/Temp/_gbsbuild/obj/palette_20.rel
                                          [ palette_20 ]
C:/Users/luisc/AppData/Local/Temp/_gbsbuild/obj/palette_21.rel
                                          [ palette_21 ]
C:/Users/luisc/AppData/Local/Temp/_gbsbuild/obj/palette_22.rel
                                          [ palette_22 ]
C:/Users/luisc/AppData/Local/Temp/_gbsbuild/obj/palette_23.rel
                                          [ palette_23 ]
C:/Users/luisc/AppData/Local/Temp/_gbsbuild/obj/palette_24.rel
                                          [ palette_24 ]
C:/Users/luisc/AppData/Local/Temp/_gbsbuild/obj/palette_25.rel
                                          [ palette_25 ]
C:/Users/luisc/AppData/Local/Temp/_gbsbuild/obj/palette_26.rel
                                          [ palette_26 ]
C:/Users/luisc/AppData/Local/Temp/_gbsbuild/obj/palette_27.rel
                                          [ palette_27 ]
C:/Users/luisc/AppData/Local/Temp/_gbsbuild/obj/palette_28.rel
                                          [ palette_28 ]
C:/Users/luisc/AppData/Local/Temp/_gbsbuild/obj/palette_3.rel
                                          [ palette_3 ]
C:/Users/luisc/AppData/Local/Temp/_gbsbuild/obj/palette_4.rel
                                          [ palette_4 ]
C:/Users/luisc/AppData/Local/Temp/_gbsbuild/obj/palette_5.rel
                                          [ palette_5 ]
C:/Users/luisc/AppData/Local/Temp/_gbsbuild/obj/palette_6.rel
                                          [ palette_6 ]
C:/Users/luisc/AppData/Local/Temp/_gbsbuild/obj/palette_7.rel
                                          [ palette_7 ]
C:/Users/luisc/AppData/Local/Temp/_gbsbuild/obj/palette_8.rel
                                          [ palette_8 ]
C:/Users/luisc/AppData/Local/Temp/_gbsbuild/obj/palette_9.rel
                                          [ palette_9 ]
C:/Users/luisc/AppData/Local/Temp/_gbsbuild/obj/scene_0_collisions.rel
                                          [ scene_0_collisions ]
C:/Users/luisc/AppData/Local/Temp/_gbsbuild/obj/scene_0.rel
                                          [ scene_0 ]
C:/Users/luisc/AppData/Local/Temp/_gbsbuild/obj/scene_1_collisions.rel
                                          [ scene_1_collisions ]
C:/Users/luisc/AppData/Local/Temp/_gbsbuild/obj/scene_1.rel
                                          [ scene_1 ]
C:/Users/luisc/AppData/Local/Temp/_gbsbuild/obj/scene_10_actors.rel
                                          [ scene_10_actors ]
C:/Users/luisc/AppData/Local/Temp/_gbsbuild/obj/scene_10_collisions.rel
                                          [ scene_10_collisions ]
C:/Users/luisc/AppData/Local/Temp/_gbsbuild/obj/scene_10_projectiles.rel
                                          [ scene_10_projectiles ]
C:/Users/luisc/AppData/Local/Temp/_gbsbuild/obj/scene_10_sprites.rel
                                          [ scene_10_sprites ]
C:/Users/luisc/AppData/Local/Temp/_gbsbuild/obj/scene_10_triggers.rel
                                          [ scene_10_triggers ]
C:/Users/luisc/AppData/Local/Temp/_gbsbuild/obj/scene_10.rel
                                          [ scene_10 ]
C:/Users/luisc/AppData/Local/Temp/_gbsbuild/obj/scene_11_collisions.rel
                                          [ scene_11_collisions ]
C:/Users/luisc/AppData/Local/Temp/_gbsbuild/obj/scene_11.rel
                                          [ scene_11 ]
C:/Users/luisc/AppData/Local/Temp/_gbsbuild/obj/scene_12_actors.rel
                                          [ scene_12_actors ]
C:/Users/luisc/AppData/Local/Temp/_gbsbuild/obj/scene_12_collisions.rel
                                          [ scene_12_collisions ]
C:/Users/luisc/AppData/Local/Temp/_gbsbuild/obj/scene_12_projectiles.rel
                                          [ scene_12_projectiles ]
C:/Users/luisc/AppData/Local/Temp/_gbsbuild/obj/scene_12_sprites.rel
                                          [ scene_12_sprites ]
C:/Users/luisc/AppData/Local/Temp/_gbsbuild/obj/scene_12_triggers.rel
                                          [ scene_12_triggers ]
C:/Users/luisc/AppData/Local/Temp/_gbsbuild/obj/scene_12.rel
                                          [ scene_12 ]
C:/Users/luisc/AppData/Local/Temp/_gbsbuild/obj/scene_13_collisions.rel
                                          [ scene_13_collisions ]
C:/Users/luisc/AppData/Local/Temp/_gbsbuild/obj/scene_13.rel
                                          [ scene_13 ]
C:/Users/luisc/AppData/Local/Temp/_gbsbuild/obj/scene_14_collisions.rel
                                          [ scene_14_collisions ]
C:/Users/luisc/AppData/Local/Temp/_gbsbuild/obj/scene_14.rel
                                          [ scene_14 ]
C:/Users/luisc/AppData/Local/Temp/_gbsbuild/obj/scene_15_collisions.rel
                                          [ scene_15_collisions ]
C:/Users/luisc/AppData/Local/Temp/_gbsbuild/obj/scene_15.rel
                                          [ scene_15 ]
C:/Users/luisc/AppData/Local/Temp/_gbsbuild/obj/scene_16_actors.rel
                                          [ scene_16_actors ]
C:/Users/luisc/AppData/Local/Temp/_gbsbuild/obj/scene_16_collisions.rel
                                          [ scene_16_collisions ]
C:/Users/luisc/AppData/Local/Temp/_gbsbuild/obj/scene_16_projectiles.rel
                                          [ scene_16_projectiles ]
C:/Users/luisc/AppData/Local/Temp/_gbsbuild/obj/scene_16_sprites.rel
                                          [ scene_16_sprites ]
C:/Users/luisc/AppData/Local/Temp/_gbsbuild/obj/scene_16_triggers.rel
                                          [ scene_16_triggers ]
C:/Users/luisc/AppData/Local/Temp/_gbsbuild/obj/scene_16.rel
                                          [ scene_16 ]
C:/Users/luisc/AppData/Local/Temp/_gbsbuild/obj/scene_17_collisions.rel
                                          [ scene_17_collisions ]
C:/Users/luisc/AppData/Local/Temp/_gbsbuild/obj/scene_17.rel
                                          [ scene_17 ]
C:/Users/luisc/AppData/Local/Temp/_gbsbuild/obj/scene_18_actors.rel
                                          [ scene_18_actors ]
C:/Users/luisc/AppData/Local/Temp/_gbsbuild/obj/scene_18_collisions.rel
                                          [ scene_18_collisions ]
C:/Users/luisc/AppData/Local/Temp/_gbsbuild/obj/scene_18_projectiles.rel
                                          [ scene_18_projectiles ]
C:/Users/luisc/AppData/Local/Temp/_gbsbuild/obj/scene_18_sprites.rel
                                          [ scene_18_sprites ]
C:/Users/luisc/AppData/Local/Temp/_gbsbuild/obj/scene_18_triggers.rel
                                          [ scene_18_triggers ]
C:/Users/luisc/AppData/Local/Temp/_gbsbuild/obj/scene_18.rel
                                          [ scene_18 ]
C:/Users/luisc/AppData/Local/Temp/_gbsbuild/obj/scene_19_collisions.rel
                                          [ scene_19_collisions ]
C:/Users/luisc/AppData/Local/Temp/_gbsbuild/obj/scene_19.rel
                                          [ scene_19 ]
C:/Users/luisc/AppData/Local/Temp/_gbsbuild/obj/scene_2_actors.rel
                                          [ scene_2_actors ]
C:/Users/luisc/AppData/Local/Temp/_gbsbuild/obj/scene_2_collisions.rel
                                          [ scene_2_collisions ]
C:/Users/luisc/AppData/Local/Temp/_gbsbuild/obj/scene_2_sprites.rel
                                          [ scene_2_sprites ]
C:/Users/luisc/AppData/Local/Temp/_gbsbuild/obj/scene_2.rel
                                          [ scene_2 ]
C:/Users/luisc/AppData/Local/Temp/_gbsbuild/obj/scene_20_actors.rel
                                          [ scene_20_actors ]
C:/Users/luisc/AppData/Local/Temp/_gbsbuild/obj/scene_20_collisions.rel
                                          [ scene_20_collisions ]
C:/Users/luisc/AppData/Local/Temp/_gbsbuild/obj/scene_20_projectiles.rel
                                          [ scene_20_projectiles ]
C:/Users/luisc/AppData/Local/Temp/_gbsbuild/obj/scene_20_sprites.rel
                                          [ scene_20_sprites ]
C:/Users/luisc/AppData/Local/Temp/_gbsbuild/obj/scene_20_triggers.rel
                                          [ scene_20_triggers ]
C:/Users/luisc/AppData/Local/Temp/_gbsbuild/obj/scene_20.rel
                                          [ scene_20 ]
C:/Users/luisc/AppData/Local/Temp/_gbsbuild/obj/scene_21_collisions.rel
                                          [ scene_21_collisions ]
C:/Users/luisc/AppData/Local/Temp/_gbsbuild/obj/scene_21.rel
                                          [ scene_21 ]
C:/Users/luisc/AppData/Local/Temp/_gbsbuild/obj/scene_22_collisions.rel
                                          [ scene_22_collisions ]
C:/Users/luisc/AppData/Local/Temp/_gbsbuild/obj/scene_22.rel
                                          [ scene_22 ]
C:/Users/luisc/AppData/Local/Temp/_gbsbuild/obj/scene_23_collisions.rel
                                          [ scene_23_collisions ]
C:/Users/luisc/AppData/Local/Temp/_gbsbuild/obj/scene_23.rel
                                          [ scene_23 ]
C:/Users/luisc/AppData/Local/Temp/_gbsbuild/obj/scene_24_actors.rel
                                          [ scene_24_actors ]
C:/Users/luisc/AppData/Local/Temp/_gbsbuild/obj/scene_24_collisions.rel
                                          [ scene_24_collisions ]
C:/Users/luisc/AppData/Local/Temp/_gbsbuild/obj/scene_24_projectiles.rel
                                          [ scene_24_projectiles ]
C:/Users/luisc/AppData/Local/Temp/_gbsbuild/obj/scene_24_sprites.rel
                                          [ scene_24_sprites ]
C:/Users/luisc/AppData/Local/Temp/_gbsbuild/obj/scene_24_triggers.rel
                                          [ scene_24_triggers ]
C:/Users/luisc/AppData/Local/Temp/_gbsbuild/obj/scene_24.rel
                                          [ scene_24 ]
C:/Users/luisc/AppData/Local/Temp/_gbsbuild/obj/scene_25_collisions.rel
                                          [ scene_25_collisions ]
C:/Users/luisc/AppData/Local/Temp/_gbsbuild/obj/scene_25.rel
                                          [ scene_25 ]
C:/Users/luisc/AppData/Local/Temp/_gbsbuild/obj/scene_26_actors.rel
                                          [ scene_26_actors ]
C:/Users/luisc/AppData/Local/Temp/_gbsbuild/obj/scene_26_collisions.rel
                                          [ scene_26_collisions ]
C:/Users/luisc/AppData/Local/Temp/_gbsbuild/obj/scene_26_projectiles.rel
                                          [ scene_26_projectiles ]
C:/Users/luisc/AppData/Local/Temp/_gbsbuild/obj/scene_26_sprites.rel
                                          [ scene_26_sprites ]
C:/Users/luisc/AppData/Local/Temp/_gbsbuild/obj/scene_26_triggers.rel
                                          [ scene_26_triggers ]
C:/Users/luisc/AppData/Local/Temp/_gbsbuild/obj/scene_26.rel
                                          [ scene_26 ]
C:/Users/luisc/AppData/Local/Temp/_gbsbuild/obj/scene_27_collisions.rel
                                          [ scene_27_collisions ]
C:/Users/luisc/AppData/Local/Temp/_gbsbuild/obj/scene_27.rel
                                          [ scene_27 ]
C:/Users/luisc/AppData/Local/Temp/_gbsbuild/obj/scene_28_actors.rel
                                          [ scene_28_actors ]
C:/Users/luisc/AppData/Local/Temp/_gbsbuild/obj/scene_28_collisions.rel
                                          [ scene_28_collisions ]
C:/Users/luisc/AppData/Local/Temp/_gbsbuild/obj/scene_28_projectiles.rel
                                          [ scene_28_projectiles ]
C:/Users/luisc/AppData/Local/Temp/_gbsbuild/obj/scene_28_sprites.rel
                                          [ scene_28_sprites ]
C:/Users/luisc/AppData/Local/Temp/_gbsbuild/obj/scene_28_triggers.rel
                                          [ scene_28_triggers ]
C:/Users/luisc/AppData/Local/Temp/_gbsbuild/obj/scene_28.rel
                                          [ scene_28 ]
C:/Users/luisc/AppData/Local/Temp/_gbsbuild/obj/scene_29_collisions.rel
                                          [ scene_29_collisions ]
C:/Users/luisc/AppData/Local/Temp/_gbsbuild/obj/scene_29.rel
                                          [ scene_29 ]
C:/Users/luisc/AppData/Local/Temp/_gbsbuild/obj/scene_3_actors.rel
                                          [ scene_3_actors ]
C:/Users/luisc/AppData/Local/Temp/_gbsbuild/obj/scene_3_collisions.rel
                                          [ scene_3_collisions ]
C:/Users/luisc/AppData/Local/Temp/_gbsbuild/obj/scene_3_sprites.rel
                                          [ scene_3_sprites ]
C:/Users/luisc/AppData/Local/Temp/_gbsbuild/obj/scene_3.rel
                                          [ scene_3 ]
C:/Users/luisc/AppData/Local/Temp/_gbsbuild/obj/scene_30_collisions.rel
                                          [ scene_30_collisions ]
C:/Users/luisc/AppData/Local/Temp/_gbsbuild/obj/scene_30.rel
                                          [ scene_30 ]
C:/Users/luisc/AppData/Local/Temp/_gbsbuild/obj/scene_31_collisions.rel
                                          [ scene_31_collisions ]
C:/Users/luisc/AppData/Local/Temp/_gbsbuild/obj/scene_31.rel
                                          [ scene_31 ]
C:/Users/luisc/AppData/Local/Temp/_gbsbuild/obj/scene_32_actors.rel
                                          [ scene_32_actors ]
C:/Users/luisc/AppData/Local/Temp/_gbsbuild/obj/scene_32_collisions.rel
                                          [ scene_32_collisions ]
C:/Users/luisc/AppData/Local/Temp/_gbsbuild/obj/scene_32_projectiles.rel
                                          [ scene_32_projectiles ]
C:/Users/luisc/AppData/Local/Temp/_gbsbuild/obj/scene_32_sprites.rel
                                          [ scene_32_sprites ]
C:/Users/luisc/AppData/Local/Temp/_gbsbuild/obj/scene_32_triggers.rel
                                          [ scene_32_triggers ]
C:/Users/luisc/AppData/Local/Temp/_gbsbuild/obj/scene_32.rel
                                          [ scene_32 ]
C:/Users/luisc/AppData/Local/Temp/_gbsbuild/obj/scene_33_collisions.rel
                                          [ scene_33_collisions ]
C:/Users/luisc/AppData/Local/Temp/_gbsbuild/obj/scene_33.rel
                                          [ scene_33 ]
C:/Users/luisc/AppData/Local/Temp/_gbsbuild/obj/scene_34_actors.rel
                                          [ scene_34_actors ]
C:/Users/luisc/AppData/Local/Temp/_gbsbuild/obj/scene_34_collisions.rel
                                          [ scene_34_collisions ]
C:/Users/luisc/AppData/Local/Temp/_gbsbuild/obj/scene_34_projectiles.rel
                                          [ scene_34_projectiles ]
C:/Users/luisc/AppData/Local/Temp/_gbsbuild/obj/scene_34_sprites.rel
                                          [ scene_34_sprites ]
C:/Users/luisc/AppData/Local/Temp/_gbsbuild/obj/scene_34_triggers.rel
                                          [ scene_34_triggers ]
C:/Users/luisc/AppData/Local/Temp/_gbsbuild/obj/scene_34.rel
                                          [ scene_34 ]
C:/Users/luisc/AppData/Local/Temp/_gbsbuild/obj/scene_35_collisions.rel
                                          [ scene_35_collisions ]
C:/Users/luisc/AppData/Local/Temp/_gbsbuild/obj/scene_35.rel
                                          [ scene_35 ]
C:/Users/luisc/AppData/Local/Temp/_gbsbuild/obj/scene_36_actors.rel
                                          [ scene_36_actors ]
C:/Users/luisc/AppData/Local/Temp/_gbsbuild/obj/scene_36_collisions.rel
                                          [ scene_36_collisions ]
C:/Users/luisc/AppData/Local/Temp/_gbsbuild/obj/scene_36_projectiles.rel
                                          [ scene_36_projectiles ]
C:/Users/luisc/AppData/Local/Temp/_gbsbuild/obj/scene_36_sprites.rel
                                          [ scene_36_sprites ]
C:/Users/luisc/AppData/Local/Temp/_gbsbuild/obj/scene_36_triggers.rel
                                          [ scene_36_triggers ]
C:/Users/luisc/AppData/Local/Temp/_gbsbuild/obj/scene_36.rel
                                          [ scene_36 ]
C:/Users/luisc/AppData/Local/Temp/_gbsbuild/obj/scene_37_collisions.rel
                                          [ scene_37_collisions ]
C:/Users/luisc/AppData/Local/Temp/_gbsbuild/obj/scene_37.rel
                                          [ scene_37 ]
C:/Users/luisc/AppData/Local/Temp/_gbsbuild/obj/scene_38_collisions.rel
                                          [ scene_38_collisions ]
C:/Users/luisc/AppData/Local/Temp/_gbsbuild/obj/scene_38.rel
                                          [ scene_38 ]
C:/Users/luisc/AppData/Local/Temp/_gbsbuild/obj/scene_39_actors.rel
                                          [ scene_39_actors ]
C:/Users/luisc/AppData/Local/Temp/_gbsbuild/obj/scene_39_collisions.rel
                                          [ scene_39_collisions ]
C:/Users/luisc/AppData/Local/Temp/_gbsbuild/obj/scene_39_sprites.rel
                                          [ scene_39_sprites ]
C:/Users/luisc/AppData/Local/Temp/_gbsbuild/obj/scene_39.rel
                                          [ scene_39 ]
C:/Users/luisc/AppData/Local/Temp/_gbsbuild/obj/scene_4_collisions.rel
                                          [ scene_4_collisions ]
C:/Users/luisc/AppData/Local/Temp/_gbsbuild/obj/scene_4.rel
                                          [ scene_4 ]
C:/Users/luisc/AppData/Local/Temp/_gbsbuild/obj/scene_40_actors.rel
                                          [ scene_40_actors ]
C:/Users/luisc/AppData/Local/Temp/_gbsbuild/obj/scene_40_collisions.rel
                                          [ scene_40_collisions ]
C:/Users/luisc/AppData/Local/Temp/_gbsbuild/obj/scene_40_sprites.rel
                                          [ scene_40_sprites ]
C:/Users/luisc/AppData/Local/Temp/_gbsbuild/obj/scene_40.rel
                                          [ scene_40 ]
C:/Users/luisc/AppData/Local/Temp/_gbsbuild/obj/scene_41_actors.rel
                                          [ scene_41_actors ]
C:/Users/luisc/AppData/Local/Temp/_gbsbuild/obj/scene_41_collisions.rel
                                          [ scene_41_collisions ]
C:/Users/luisc/AppData/Local/Temp/_gbsbuild/obj/scene_41_sprites.rel
                                          [ scene_41_sprites ]
C:/Users/luisc/AppData/Local/Temp/_gbsbuild/obj/scene_41.rel
                                          [ scene_41 ]
C:/Users/luisc/AppData/Local/Temp/_gbsbuild/obj/scene_42_collisions.rel
                                          [ scene_42_collisions ]
C:/Users/luisc/AppData/Local/Temp/_gbsbuild/obj/scene_42.rel
                                          [ scene_42 ]
C:/Users/luisc/AppData/Local/Temp/_gbsbuild/obj/scene_5_collisions.rel
                                          [ scene_5_collisions ]
C:/Users/luisc/AppData/Local/Temp/_gbsbuild/obj/scene_5.rel
                                          [ scene_5 ]
C:/Users/luisc/AppData/Local/Temp/_gbsbuild/obj/scene_6_actors.rel
                                          [ scene_6_actors ]
C:/Users/luisc/AppData/Local/Temp/_gbsbuild/obj/scene_6_collisions.rel
                                          [ scene_6_collisions ]
C:/Users/luisc/AppData/Local/Temp/_gbsbuild/obj/scene_6_sprites.rel
                                          [ scene_6_sprites ]
C:/Users/luisc/AppData/Local/Temp/_gbsbuild/obj/scene_6.rel
                                          [ scene_6 ]
C:/Users/luisc/AppData/Local/Temp/_gbsbuild/obj/scene_7_collisions.rel
                                          [ scene_7_collisions ]
C:/Users/luisc/AppData/Local/Temp/_gbsbuild/obj/scene_7.rel
                                          [ scene_7 ]
C:/Users/luisc/AppData/Local/Temp/_gbsbuild/obj/scene_8_actors.rel
                                          [ scene_8_actors ]
C:/Users/luisc/AppData/Local/Temp/_gbsbuild/obj/scene_8_collisions.rel
                                          [ scene_8_collisions ]
C:/Users/luisc/AppData/Local/Temp/_gbsbuild/obj/scene_8_projectiles.rel
                                          [ scene_8_projectiles ]
C:/Users/luisc/AppData/Local/Temp/_gbsbuild/obj/scene_8_sprites.rel
                                          [ scene_8_sprites ]
C:/Users/luisc/AppData/Local/Temp/_gbsbuild/obj/scene_8_triggers.rel
                                          [ scene_8_triggers ]
C:/Users/luisc/AppData/Local/Temp/_gbsbuild/obj/scene_8.rel
                                          [ scene_8 ]
C:/Users/luisc/AppData/Local/Temp/_gbsbuild/obj/scene_9_collisions.rel
                                          [ scene_9_collisions ]
C:/Users/luisc/AppData/Local/Temp/_gbsbuild/obj/scene_9.rel
                                          [ scene_9 ]
C:/Users/luisc/AppData/Local/Temp/_gbsbuild/obj/script_engine_init.rel
                                          [  ]
C:/Users/luisc/AppData/Local/Temp/_gbsbuild/obj/script_input_0.rel
                                          [ script_input_0 ]
C:/Users/luisc/AppData/Local/Temp/_gbsbuild/obj/script_input_1.rel
                                          [ script_input_1 ]
C:/Users/luisc/AppData/Local/Temp/_gbsbuild/obj/script_s0_init.rel
                                          [ script_s0_init ]
C:/Users/luisc/AppData/Local/Temp/_gbsbuild/obj/script_s1_init.rel
                                          [ script_s1_init ]
C:/Users/luisc/AppData/Local/Temp/_gbsbuild/obj/script_s10_init.rel
                                          [ script_s10_init ]
C:/Users/luisc/AppData/Local/Temp/_gbsbuild/obj/script_s10_p_hit1.rel
                                          [ script_s10_p_hit1 ]
C:/Users/luisc/AppData/Local/Temp/_gbsbuild/obj/script_s10a0_update.rel
                                          [ script_s10a0_update ]
C:/Users/luisc/AppData/Local/Temp/_gbsbuild/obj/script_s10a1_update.rel
                                          [ script_s10a1_update ]
C:/Users/luisc/AppData/Local/Temp/_gbsbuild/obj/script_s10a2_interact.rel
                                          [ script_s10a2_interact ]
C:/Users/luisc/AppData/Local/Temp/_gbsbuild/obj/script_s10t0_interact.rel
                                          [ script_s10t0_interact ]
C:/Users/luisc/AppData/Local/Temp/_gbsbuild/obj/script_s11_init.rel
                                          [ script_s11_init ]
C:/Users/luisc/AppData/Local/Temp/_gbsbuild/obj/script_s12_init.rel
                                          [ script_s12_init ]
C:/Users/luisc/AppData/Local/Temp/_gbsbuild/obj/script_s12a0_update.rel
                                          [ script_s12a0_update ]
C:/Users/luisc/AppData/Local/Temp/_gbsbuild/obj/script_s12t0_interact.rel
                                          [ script_s12t0_interact ]
C:/Users/luisc/AppData/Local/Temp/_gbsbuild/obj/script_s15_init.rel
                                          [ script_s15_init ]
C:/Users/luisc/AppData/Local/Temp/_gbsbuild/obj/script_s16_init.rel
                                          [ script_s16_init ]
C:/Users/luisc/AppData/Local/Temp/_gbsbuild/obj/script_s16a0_update.rel
                                          [ script_s16a0_update ]
C:/Users/luisc/AppData/Local/Temp/_gbsbuild/obj/script_s16t0_interact.rel
                                          [ script_s16t0_interact ]
C:/Users/luisc/AppData/Local/Temp/_gbsbuild/obj/script_s17_init.rel
                                          [ script_s17_init ]
C:/Users/luisc/AppData/Local/Temp/_gbsbuild/obj/script_s18_init.rel
                                          [ script_s18_init ]
C:/Users/luisc/AppData/Local/Temp/_gbsbuild/obj/script_s18a0_update.rel
                                          [ script_s18a0_update ]
C:/Users/luisc/AppData/Local/Temp/_gbsbuild/obj/script_s18t0_interact.rel
                                          [ script_s18t0_interact ]
C:/Users/luisc/AppData/Local/Temp/_gbsbuild/obj/script_s19_init.rel
                                          [ script_s19_init ]
C:/Users/luisc/AppData/Local/Temp/_gbsbuild/obj/script_s2_init.rel
                                          [ script_s2_init ]
C:/Users/luisc/AppData/Local/Temp/_gbsbuild/obj/script_s20_init.rel
                                          [ script_s20_init ]
C:/Users/luisc/AppData/Local/Temp/_gbsbuild/obj/script_s20a0_update.rel
                                          [ script_s20a0_update ]
C:/Users/luisc/AppData/Local/Temp/_gbsbuild/obj/script_s20t0_interact.rel
                                          [ script_s20t0_interact ]
C:/Users/luisc/AppData/Local/Temp/_gbsbuild/obj/script_s23_init.rel
                                          [ script_s23_init ]
C:/Users/luisc/AppData/Local/Temp/_gbsbuild/obj/script_s24_init.rel
                                          [ script_s24_init ]
C:/Users/luisc/AppData/Local/Temp/_gbsbuild/obj/script_s24a0_update.rel
                                          [ script_s24a0_update ]
C:/Users/luisc/AppData/Local/Temp/_gbsbuild/obj/script_s24t0_interact.rel
                                          [ script_s24t0_interact ]
C:/Users/luisc/AppData/Local/Temp/_gbsbuild/obj/script_s25_init.rel
                                          [ script_s25_init ]
C:/Users/luisc/AppData/Local/Temp/_gbsbuild/obj/script_s26_init.rel
                                          [ script_s26_init ]
C:/Users/luisc/AppData/Local/Temp/_gbsbuild/obj/script_s26a0_update.rel
                                          [ script_s26a0_update ]
C:/Users/luisc/AppData/Local/Temp/_gbsbuild/obj/script_s26t0_interact.rel
                                          [ script_s26t0_interact ]
C:/Users/luisc/AppData/Local/Temp/_gbsbuild/obj/script_s27_init.rel
                                          [ script_s27_init ]
C:/Users/luisc/AppData/Local/Temp/_gbsbuild/obj/script_s28_init.rel
                                          [ script_s28_init ]
C:/Users/luisc/AppData/Local/Temp/_gbsbuild/obj/script_s28a0_update.rel
                                          [ script_s28a0_update ]
C:/Users/luisc/AppData/Local/Temp/_gbsbuild/obj/script_s28t0_interact.rel
                                          [ script_s28t0_interact ]
C:/Users/luisc/AppData/Local/Temp/_gbsbuild/obj/script_s2a0_update.rel
                                          [ script_s2a0_update ]
C:/Users/luisc/AppData/Local/Temp/_gbsbuild/obj/script_s3_init.rel
                                          [ script_s3_init ]
C:/Users/luisc/AppData/Local/Temp/_gbsbuild/obj/script_s31_init.rel
                                          [ script_s31_init ]
C:/Users/luisc/AppData/Local/Temp/_gbsbuild/obj/script_s32_init.rel
                                          [ script_s32_init ]
C:/Users/luisc/AppData/Local/Temp/_gbsbuild/obj/script_s32a0_update.rel
                                          [ script_s32a0_update ]
C:/Users/luisc/AppData/Local/Temp/_gbsbuild/obj/script_s32t0_interact.rel
                                          [ script_s32t0_interact ]
C:/Users/luisc/AppData/Local/Temp/_gbsbuild/obj/script_s33_init.rel
                                          [ script_s33_init ]
C:/Users/luisc/AppData/Local/Temp/_gbsbuild/obj/script_s34_init.rel
                                          [ script_s34_init ]
C:/Users/luisc/AppData/Local/Temp/_gbsbuild/obj/script_s34a0_update.rel
                                          [ script_s34a0_update ]
C:/Users/luisc/AppData/Local/Temp/_gbsbuild/obj/script_s34t0_interact.rel
                                          [ script_s34t0_interact ]
C:/Users/luisc/AppData/Local/Temp/_gbsbuild/obj/script_s35_init.rel
                                          [ script_s35_init ]
C:/Users/luisc/AppData/Local/Temp/_gbsbuild/obj/script_s36_init.rel
                                          [ script_s36_init ]
C:/Users/luisc/AppData/Local/Temp/_gbsbuild/obj/script_s36a0_update.rel
                                          [ script_s36a0_update ]
C:/Users/luisc/AppData/Local/Temp/_gbsbuild/obj/script_s36t0_interact.rel
                                          [ script_s36t0_interact ]
C:/Users/luisc/AppData/Local/Temp/_gbsbuild/obj/script_s39_init.rel
                                          [ script_s39_init ]
C:/Users/luisc/AppData/Local/Temp/_gbsbuild/obj/script_s3a0_update.rel
                                          [ script_s3a0_update ]
C:/Users/luisc/AppData/Local/Temp/_gbsbuild/obj/script_s4_init.rel
                                          [ script_s4_init ]
C:/Users/luisc/AppData/Local/Temp/_gbsbuild/obj/script_s40_init.rel
                                          [ script_s40_init ]
C:/Users/luisc/AppData/Local/Temp/_gbsbuild/obj/script_s41_init.rel
                                          [ script_s41_init ]
C:/Users/luisc/AppData/Local/Temp/_gbsbuild/obj/script_s42_init.rel
                                          [ script_s42_init ]
C:/Users/luisc/AppData/Local/Temp/_gbsbuild/obj/script_s5_init.rel
                                          [ script_s5_init ]
C:/Users/luisc/AppData/Local/Temp/_gbsbuild/obj/script_s6_init.rel
                                          [ script_s6_init ]
C:/Users/luisc/AppData/Local/Temp/_gbsbuild/obj/script_s7_init.rel
                                          [ script_s7_init ]
C:/Users/luisc/AppData/Local/Temp/_gbsbuild/obj/script_s8_init.rel
                                          [ script_s8_init ]
C:/Users/luisc/AppData/Local/Temp/_gbsbuild/obj/script_s8_p_hit1.rel
                                          [ script_s8_p_hit1 ]
C:/Users/luisc/AppData/Local/Temp/_gbsbuild/obj/script_s8a0_update.rel
                                          [ script_s8a0_update ]
C:/Users/luisc/AppData/Local/Temp/_gbsbuild/obj/script_s8a1_update.rel
                                          [ script_s8a1_update ]
C:/Users/luisc/AppData/Local/Temp/_gbsbuild/obj/script_s8a10_interact.rel
                                          [ script_s8a10_interact ]
C:/Users/luisc/AppData/Local/Temp/_gbsbuild/obj/script_s8a10_update.rel
                                          [ script_s8a10_update ]
C:/Users/luisc/AppData/Local/Temp/_gbsbuild/obj/script_s8a12_interact.rel
                                          [ script_s8a12_interact ]
C:/Users/luisc/AppData/Local/Temp/_gbsbuild/obj/script_s8a12_update.rel
                                          [ script_s8a12_update ]
C:/Users/luisc/AppData/Local/Temp/_gbsbuild/obj/script_s8a13_interact.rel
                                          [ script_s8a13_interact ]
C:/Users/luisc/AppData/Local/Temp/_gbsbuild/obj/script_s8a13_update.rel
                                          [ script_s8a13_update ]
C:/Users/luisc/AppData/Local/Temp/_gbsbuild/obj/script_s8a14_interact.rel
                                          [ script_s8a14_interact ]
C:/Users/luisc/AppData/Local/Temp/_gbsbuild/obj/script_s8a14_update.rel
                                          [ script_s8a14_update ]
C:/Users/luisc/AppData/Local/Temp/_gbsbuild/obj/script_s8a15_interact.rel
                                          [ script_s8a15_interact ]
C:/Users/luisc/AppData/Local/Temp/_gbsbuild/obj/script_s8a15_update.rel
                                          [ script_s8a15_update ]
C:/Users/luisc/AppData/Local/Temp/_gbsbuild/obj/script_s8a16_interact.rel
                                          [ script_s8a16_interact ]
C:/Users/luisc/AppData/Local/Temp/_gbsbuild/obj/script_s8a16_update.rel
                                          [ script_s8a16_update ]
C:/Users/luisc/AppData/Local/Temp/_gbsbuild/obj/script_s8a17_interact.rel
                                          [ script_s8a17_interact ]
C:/Users/luisc/AppData/Local/Temp/_gbsbuild/obj/script_s8a17_update.rel
                                          [ script_s8a17_update ]
C:/Users/luisc/AppData/Local/Temp/_gbsbuild/obj/script_s8a18_interact.rel
                                          [ script_s8a18_interact ]
C:/Users/luisc/AppData/Local/Temp/_gbsbuild/obj/script_s8a18_update.rel
                                          [ script_s8a18_update ]
C:/Users/luisc/AppData/Local/Temp/_gbsbuild/obj/script_s8a19_interact.rel
                                          [ script_s8a19_interact ]
C:/Users/luisc/AppData/Local/Temp/_gbsbuild/obj/script_s8a19_update.rel
                                          [ script_s8a19_update ]
C:/Users/luisc/AppData/Local/Temp/_gbsbuild/obj/script_s8a2_interact.rel
                                          [ script_s8a2_interact ]
C:/Users/luisc/AppData/Local/Temp/_gbsbuild/obj/script_s8a3_interact.rel
                                          [ script_s8a3_interact ]
C:/Users/luisc/AppData/Local/Temp/_gbsbuild/obj/script_s8a3_update.rel
                                          [ script_s8a3_update ]
C:/Users/luisc/AppData/Local/Temp/_gbsbuild/obj/script_s8a6_interact.rel
                                          [ script_s8a6_interact ]
C:/Users/luisc/AppData/Local/Temp/_gbsbuild/obj/script_s8a6_update.rel
                                          [ script_s8a6_update ]
C:/Users/luisc/AppData/Local/Temp/_gbsbuild/obj/script_s8a7_interact.rel
                                          [ script_s8a7_interact ]
C:/Users/luisc/AppData/Local/Temp/_gbsbuild/obj/script_s8a7_update.rel
                                          [ script_s8a7_update ]
C:/Users/luisc/AppData/Local/Temp/_gbsbuild/obj/script_s8a8_interact.rel
                                          [ script_s8a8_interact ]
C:/Users/luisc/AppData/Local/Temp/_gbsbuild/obj/script_s8a8_update.rel
                                          [ script_s8a8_update ]
C:/Users/luisc/AppData/Local/Temp/_gbsbuild/obj/script_s8a9_interact.rel
                                          [ script_s8a9_interact ]
C:/Users/luisc/AppData/Local/Temp/_gbsbuild/obj/script_s8a9_update.rel
                                          [ script_s8a9_update ]
C:/Users/luisc/AppData/Local/Temp/_gbsbuild/obj/script_s8t0_interact.rel
                                          [ script_s8t0_interact ]
C:/Users/luisc/AppData/Local/Temp/_gbsbuild/obj/script_s9_init.rel
                                          [ script_s9_init ]
C:/Users/luisc/AppData/Local/Temp/_gbsbuild/obj/spritesheet_0.rel
                                          [ spritesheet_0 ]
C:/Users/luisc/AppData/Local/Temp/_gbsbuild/obj/spritesheet_1.rel
                                          [ spritesheet_1 ]
C:/Users/luisc/AppData/Local/Temp/_gbsbuild/obj/spritesheet_10.rel
                                          [ spritesheet_10 ]
C:/Users/luisc/AppData/Local/Temp/_gbsbuild/obj/spritesheet_11.rel
                                          [ spritesheet_11 ]
C:/Users/luisc/AppData/Local/Temp/_gbsbuild/obj/spritesheet_12.rel
                                          [ spritesheet_12 ]
C:/Users/luisc/AppData/Local/Temp/_gbsbuild/obj/spritesheet_13.rel
                                          [ spritesheet_13 ]
C:/Users/luisc/AppData/Local/Temp/_gbsbuild/obj/spritesheet_14.rel
                                          [ spritesheet_14 ]
C:/Users/luisc/AppData/Local/Temp/_gbsbuild/obj/spritesheet_15.rel
                                          [ spritesheet_15 ]
C:/Users/luisc/AppData/Local/Temp/_gbsbuild/obj/spritesheet_16.rel
                                          [ spritesheet_16 ]
C:/Users/luisc/AppData/Local/Temp/_gbsbuild/obj/spritesheet_17.rel
                                          [ spritesheet_17 ]
C:/Users/luisc/AppData/Local/Temp/_gbsbuild/obj/spritesheet_18.rel
                                          [ spritesheet_18 ]
C:/Users/luisc/AppData/Local/Temp/_gbsbuild/obj/spritesheet_19.rel
                                          [ spritesheet_19 ]
C:/Users/luisc/AppData/Local/Temp/_gbsbuild/obj/spritesheet_2.rel
                                          [ spritesheet_2 ]
C:/Users/luisc/AppData/Local/Temp/_gbsbuild/obj/spritesheet_20.rel
                                          [ spritesheet_20 ]
C:/Users/luisc/AppData/Local/Temp/_gbsbuild/obj/spritesheet_21.rel
                                          [ spritesheet_21 ]
C:/Users/luisc/AppData/Local/Temp/_gbsbuild/obj/spritesheet_22.rel
                                          [ spritesheet_22 ]
C:/Users/luisc/AppData/Local/Temp/_gbsbuild/obj/spritesheet_23.rel
                                          [ spritesheet_23 ]
C:/Users/luisc/AppData/Local/Temp/_gbsbuild/obj/spritesheet_24.rel
                                          [ spritesheet_24 ]
C:/Users/luisc/AppData/Local/Temp/_gbsbuild/obj/spritesheet_25.rel
                                          [ spritesheet_25 ]
C:/Users/luisc/AppData/Local/Temp/_gbsbuild/obj/spritesheet_26.rel
                                          [ spritesheet_26 ]
C:/Users/luisc/AppData/Local/Temp/_gbsbuild/obj/spritesheet_27.rel
                                          [ spritesheet_27 ]
C:/Users/luisc/AppData/Local/Temp/_gbsbuild/obj/spritesheet_3.rel
                                          [ spritesheet_3 ]
C:/Users/luisc/AppData/Local/Temp/_gbsbuild/obj/spritesheet_4.rel
                                          [ spritesheet_4 ]
C:/Users/luisc/AppData/Local/Temp/_gbsbuild/obj/spritesheet_5.rel
                                          [ spritesheet_5 ]
C:/Users/luisc/AppData/Local/Temp/_gbsbuild/obj/spritesheet_6.rel
                                          [ spritesheet_6 ]
C:/Users/luisc/AppData/Local/Temp/_gbsbuild/obj/spritesheet_7.rel
                                          [ spritesheet_7 ]
C:/Users/luisc/AppData/Local/Temp/_gbsbuild/obj/spritesheet_8.rel
                                          [ spritesheet_8 ]
C:/Users/luisc/AppData/Local/Temp/_gbsbuild/obj/spritesheet_9.rel
                                          [ spritesheet_9 ]
C:/Users/luisc/AppData/Local/Temp/_gbsbuild/obj/spritesheet_none.rel
                                          [ spritesheet_none ]
C:/Users/luisc/AppData/Local/Temp/_gbsbuild/obj/tilemap_0.rel
                                          [ tilemap_0 ]
C:/Users/luisc/AppData/Local/Temp/_gbsbuild/obj/tilemap_1.rel
                                          [ tilemap_1 ]
C:/Users/luisc/AppData/Local/Temp/_gbsbuild/obj/tilemap_10.rel
                                          [ tilemap_10 ]
C:/Users/luisc/AppData/Local/Temp/_gbsbuild/obj/tilemap_11.rel
                                          [ tilemap_11 ]
C:/Users/luisc/AppData/Local/Temp/_gbsbuild/obj/tilemap_12.rel
                                          [ tilemap_12 ]
C:/Users/luisc/AppData/Local/Temp/_gbsbuild/obj/tilemap_13.rel
                                          [ tilemap_13 ]
C:/Users/luisc/AppData/Local/Temp/_gbsbuild/obj/tilemap_14.rel
                                          [ tilemap_14 ]
C:/Users/luisc/AppData/Local/Temp/_gbsbuild/obj/tilemap_15.rel
                                          [ tilemap_15 ]
C:/Users/luisc/AppData/Local/Temp/_gbsbuild/obj/tilemap_16.rel
                                          [ tilemap_16 ]
C:/Users/luisc/AppData/Local/Temp/_gbsbuild/obj/tilemap_17.rel
                                          [ tilemap_17 ]
C:/Users/luisc/AppData/Local/Temp/_gbsbuild/obj/tilemap_18.rel
                                          [ tilemap_18 ]
C:/Users/luisc/AppData/Local/Temp/_gbsbuild/obj/tilemap_19.rel
                                          [ tilemap_19 ]
C:/Users/luisc/AppData/Local/Temp/_gbsbuild/obj/tilemap_2.rel
                                          [ tilemap_2 ]
C:/Users/luisc/AppData/Local/Temp/_gbsbuild/obj/tilemap_20.rel
                                          [ tilemap_20 ]
C:/Users/luisc/AppData/Local/Temp/_gbsbuild/obj/tilemap_21.rel
                                          [ tilemap_21 ]
C:/Users/luisc/AppData/Local/Temp/_gbsbuild/obj/tilemap_22.rel
                                          [ tilemap_22 ]
C:/Users/luisc/AppData/Local/Temp/_gbsbuild/obj/tilemap_23.rel
                                          [ tilemap_23 ]
C:/Users/luisc/AppData/Local/Temp/_gbsbuild/obj/tilemap_24.rel
                                          [ tilemap_24 ]
C:/Users/luisc/AppData/Local/Temp/_gbsbuild/obj/tilemap_25.rel
                                          [ tilemap_25 ]
C:/Users/luisc/AppData/Local/Temp/_gbsbuild/obj/tilemap_26.rel
                                          [ tilemap_26 ]
C:/Users/luisc/AppData/Local/Temp/_gbsbuild/obj/tilemap_27.rel
                                          [ tilemap_27 ]
C:/Users/luisc/AppData/Local/Temp/_gbsbuild/obj/tilemap_28.rel
                                          [ tilemap_28 ]
C:/Users/luisc/AppData/Local/Temp/_gbsbuild/obj/tilemap_29.rel
                                          [ tilemap_29 ]
C:/Users/luisc/AppData/Local/Temp/_gbsbuild/obj/tilemap_3.rel
                                          [ tilemap_3 ]
C:/Users/luisc/AppData/Local/Temp/_gbsbuild/obj/tilemap_30.rel
                                          [ tilemap_30 ]
C:/Users/luisc/AppData/Local/Temp/_gbsbuild/obj/tilemap_31.rel
                                          [ tilemap_31 ]
C:/Users/luisc/AppData/Local/Temp/_gbsbuild/obj/tilemap_32.rel
                                          [ tilemap_32 ]
C:/Users/luisc/AppData/Local/Temp/_gbsbuild/obj/tilemap_33.rel
                                          [ tilemap_33 ]
C:/Users/luisc/AppData/Local/Temp/_gbsbuild/obj/tilemap_34.rel
                                          [ tilemap_34 ]
C:/Users/luisc/AppData/Local/Temp/_gbsbuild/obj/tilemap_35.rel
                                          [ tilemap_35 ]
C:/Users/luisc/AppData/Local/Temp/_gbsbuild/obj/tilemap_36.rel
                                          [ tilemap_36 ]
C:/Users/luisc/AppData/Local/Temp/_gbsbuild/obj/tilemap_37.rel
                                          [ tilemap_37 ]
C:/Users/luisc/AppData/Local/Temp/_gbsbuild/obj/tilemap_38.rel
                                          [ tilemap_38 ]
C:/Users/luisc/AppData/Local/Temp/_gbsbuild/obj/tilemap_4.rel
                                          [ tilemap_4 ]
C:/Users/luisc/AppData/Local/Temp/_gbsbuild/obj/tilemap_5.rel
                                          [ tilemap_5 ]
C:/Users/luisc/AppData/Local/Temp/_gbsbuild/obj/tilemap_6.rel
                                          [ tilemap_6 ]
C:/Users/luisc/AppData/Local/Temp/_gbsbuild/obj/tilemap_7.rel
                                          [ tilemap_7 ]
C:/Users/luisc/AppData/Local/Temp/_gbsbuild/obj/tilemap_8.rel
                                          [ tilemap_8 ]
C:/Users/luisc/AppData/Local/Temp/_gbsbuild/obj/tilemap_9.rel
                                          [ tilemap_9 ]
C:/Users/luisc/AppData/Local/Temp/_gbsbuild/obj/tilemap_attr_0.rel
                                          [ tilemap_attr_0 ]
C:/Users/luisc/AppData/Local/Temp/_gbsbuild/obj/tilemap_attr_1.rel
                                          [ tilemap_attr_1 ]
C:/Users/luisc/AppData/Local/Temp/_gbsbuild/obj/tilemap_attr_10.rel
                                          [ tilemap_attr_10 ]
C:/Users/luisc/AppData/Local/Temp/_gbsbuild/obj/tilemap_attr_11.rel
                                          [ tilemap_attr_11 ]
C:/Users/luisc/AppData/Local/Temp/_gbsbuild/obj/tilemap_attr_12.rel
                                          [ tilemap_attr_12 ]
C:/Users/luisc/AppData/Local/Temp/_gbsbuild/obj/tilemap_attr_13.rel
                                          [ tilemap_attr_13 ]
C:/Users/luisc/AppData/Local/Temp/_gbsbuild/obj/tilemap_attr_14.rel
                                          [ tilemap_attr_14 ]
C:/Users/luisc/AppData/Local/Temp/_gbsbuild/obj/tilemap_attr_15.rel
                                          [ tilemap_attr_15 ]
C:/Users/luisc/AppData/Local/Temp/_gbsbuild/obj/tilemap_attr_16.rel
                                          [ tilemap_attr_16 ]
C:/Users/luisc/AppData/Local/Temp/_gbsbuild/obj/tilemap_attr_17.rel
                                          [ tilemap_attr_17 ]
C:/Users/luisc/AppData/Local/Temp/_gbsbuild/obj/tilemap_attr_18.rel
                                          [ tilemap_attr_18 ]
C:/Users/luisc/AppData/Local/Temp/_gbsbuild/obj/tilemap_attr_2.rel
                                          [ tilemap_attr_2 ]
C:/Users/luisc/AppData/Local/Temp/_gbsbuild/obj/tilemap_attr_3.rel
                                          [ tilemap_attr_3 ]
C:/Users/luisc/AppData/Local/Temp/_gbsbuild/obj/tilemap_attr_4.rel
                                          [ tilemap_attr_4 ]
C:/Users/luisc/AppData/Local/Temp/_gbsbuild/obj/tilemap_attr_5.rel
                                          [ tilemap_attr_5 ]
C:/Users/luisc/AppData/Local/Temp/_gbsbuild/obj/tilemap_attr_6.rel
                                          [ tilemap_attr_6 ]
C:/Users/luisc/AppData/Local/Temp/_gbsbuild/obj/tilemap_attr_7.rel
                                          [ tilemap_attr_7 ]
C:/Users/luisc/AppData/Local/Temp/_gbsbuild/obj/tilemap_attr_8.rel
                                          [ tilemap_attr_8 ]
C:/Users/luisc/AppData/Local/Temp/_gbsbuild/obj/tilemap_attr_9.rel
                                          [ tilemap_attr_9 ]
C:/Users/luisc/AppData/Local/Temp/_gbsbuild/obj/tileset_0.rel
                                          [ tileset_0 ]
C:/Users/luisc/AppData/Local/Temp/_gbsbuild/obj/tileset_1.rel
                                          [ tileset_1 ]
C:/Users/luisc/AppData/Local/Temp/_gbsbuild/obj/tileset_10.rel
                                          [ tileset_10 ]
C:/Users/luisc/AppData/Local/Temp/_gbsbuild/obj/tileset_11.rel
                                          [ tileset_11 ]
C:/Users/luisc/AppData/Local/Temp/_gbsbuild/obj/tileset_12.rel
                                          [ tileset_12 ]
C:/Users/luisc/AppData/Local/Temp/_gbsbuild/obj/tileset_13.rel
                                          [ tileset_13 ]
C:/Users/luisc/AppData/Local/Temp/_gbsbuild/obj/tileset_14.rel
                                          [ tileset_14 ]
C:/Users/luisc/AppData/Local/Temp/_gbsbuild/obj/tileset_15.rel
                                          [ tileset_15 ]
C:/Users/luisc/AppData/Local/Temp/_gbsbuild/obj/tileset_16.rel
                                          [ tileset_16 ]
C:/Users/luisc/AppData/Local/Temp/_gbsbuild/obj/tileset_17.rel
                                          [ tileset_17 ]
C:/Users/luisc/AppData/Local/Temp/_gbsbuild/obj/tileset_18.rel
                                          [ tileset_18 ]
C:/Users/luisc/AppData/Local/Temp/_gbsbuild/obj/tileset_19.rel
                                          [ tileset_19 ]
C:/Users/luisc/AppData/Local/Temp/_gbsbuild/obj/tileset_2.rel
                                          [ tileset_2 ]
C:/Users/luisc/AppData/Local/Temp/_gbsbuild/obj/tileset_20.rel
                                          [ tileset_20 ]
C:/Users/luisc/AppData/Local/Temp/_gbsbuild/obj/tileset_21.rel
                                          [ tileset_21 ]
C:/Users/luisc/AppData/Local/Temp/_gbsbuild/obj/tileset_22.rel
                                          [ tileset_22 ]
C:/Users/luisc/AppData/Local/Temp/_gbsbuild/obj/tileset_23.rel
                                          [ tileset_23 ]
C:/Users/luisc/AppData/Local/Temp/_gbsbuild/obj/tileset_24.rel
                                          [ tileset_24 ]
C:/Users/luisc/AppData/Local/Temp/_gbsbuild/obj/tileset_25.rel
                                          [ tileset_25 ]
C:/Users/luisc/AppData/Local/Temp/_gbsbuild/obj/tileset_26.rel
                                          [ tileset_26 ]
C:/Users/luisc/AppData/Local/Temp/_gbsbuild/obj/tileset_27.rel
                                          [ tileset_27 ]
C:/Users/luisc/AppData/Local/Temp/_gbsbuild/obj/tileset_28.rel
                                          [ tileset_28 ]
C:/Users/luisc/AppData/Local/Temp/_gbsbuild/obj/tileset_29.rel
                                          [ tileset_29 ]
C:/Users/luisc/AppData/Local/Temp/_gbsbuild/obj/tileset_3.rel
                                          [ tileset_3 ]
C:/Users/luisc/AppData/Local/Temp/_gbsbuild/obj/tileset_30.rel
                                          [ tileset_30 ]
C:/Users/luisc/AppData/Local/Temp/_gbsbuild/obj/tileset_31.rel
                                          [ tileset_31 ]
C:/Users/luisc/AppData/Local/Temp/_gbsbuild/obj/tileset_32.rel
                                          [ tileset_32 ]
C:/Users/luisc/AppData/Local/Temp/_gbsbuild/obj/tileset_33.rel
                                          [ tileset_33 ]
C:/Users/luisc/AppData/Local/Temp/_gbsbuild/obj/tileset_34.rel
                                          [ tileset_34 ]
C:/Users/luisc/AppData/Local/Temp/_gbsbuild/obj/tileset_35.rel
                                          [ tileset_35 ]
C:/Users/luisc/AppData/Local/Temp/_gbsbuild/obj/tileset_36.rel
                                          [ tileset_36 ]
C:/Users/luisc/AppData/Local/Temp/_gbsbuild/obj/tileset_37.rel
                                          [ tileset_37 ]
C:/Users/luisc/AppData/Local/Temp/_gbsbuild/obj/tileset_38.rel
                                          [ tileset_38 ]
C:/Users/luisc/AppData/Local/Temp/_gbsbuild/obj/tileset_39.rel
                                          [ tileset_39 ]
C:/Users/luisc/AppData/Local/Temp/_gbsbuild/obj/tileset_4.rel
                                          [ tileset_4 ]
C:/Users/luisc/AppData/Local/Temp/_gbsbuild/obj/tileset_40.rel
                                          [ tileset_40 ]
C:/Users/luisc/AppData/Local/Temp/_gbsbuild/obj/tileset_41.rel
                                          [ tileset_41 ]
C:/Users/luisc/AppData/Local/Temp/_gbsbuild/obj/tileset_5.rel
                                          [ tileset_5 ]
C:/Users/luisc/AppData/Local/Temp/_gbsbuild/obj/tileset_6.rel
                                          [ tileset_6 ]
C:/Users/luisc/AppData/Local/Temp/_gbsbuild/obj/tileset_7.rel
                                          [ tileset_7 ]
C:/Users/luisc/AppData/Local/Temp/_gbsbuild/obj/tileset_8.rel
                                          [ tileset_8 ]
C:/Users/luisc/AppData/Local/Temp/_gbsbuild/obj/tileset_9.rel
                                          [ tileset_9 ]
C:/Users/luisc/AppData/Local/Temp/_gbsbuild/obj/main.rel
                                          [ main ]
C:/Users/luisc/AppData/Local/Temp/_gbsbuild/obj/adventure.rel
                                          [ adventure ]
C:/Users/luisc/AppData/Local/Temp/_gbsbuild/obj/logo.rel
                                          [ logo ]
C:/Users/luisc/AppData/Local/Temp/_gbsbuild/obj/platform.rel
                                          [ platform ]
C:/Users/luisc/AppData/Local/Temp/_gbsbuild/obj/pointnclick.rel
                                          [ pointnclick ]
C:/Users/luisc/AppData/Local/Temp/_gbsbuild/obj/shmup.rel
                                          [ shmup ]
C:/Users/luisc/AppData/Local/Temp/_gbsbuild/obj/states_ptrs.rel
                                          [  ]
C:/Users/luisc/AppData/Local/Temp/_gbsbuild/obj/topdown.rel
                                          [ topdown ]


Libraries Linked                          [ object file ]

C:\Users\luisc\AppData\Local\Temp/_gbstools/gbdk/lib/small/asxxxx/gb/gb.lib
                                          [ fill_rect_wi.o ]
C:\Users\luisc\AppData\Local\Temp/_gbstools/gbdk/lib/small/asxxxx/gb/gb.lib
                                          [ sfr.o ]
lib/hUGEDriver.lib                        [ hUGEDriver.obj.o ]
C:\Users\luisc\AppData\Local\Temp/_gbstools/gbdk/lib/small/asxxxx/gbz80/gbz80.lib
                                          [ rand.o ]
C:\Users\luisc\AppData\Local\Temp/_gbstools/gbdk/lib/small/asxxxx/gb/gb.lib
                                          [ cgb_palettes.o ]
C:\Users\luisc\AppData\Local\Temp/_gbstools/gbdk/lib/small/asxxxx/gbz80/gbz80.lib
                                          [ mul.o ]
C:\Users\luisc\AppData\Local\Temp/_gbstools/gbdk/lib/small/asxxxx/gbz80/gbz80.lib
                                          [ abs.o ]
C:\Users\luisc\AppData\Local\Temp/_gbstools/gbdk/lib/small/asxxxx/gb/gb.lib
                                          [ set_wi_t.o ]
C:\Users\luisc\AppData\Local\Temp/_gbstools/gbdk/lib/small/asxxxx/gb/gb.lib
                                          [ set_data.o ]
C:\Users\luisc\AppData\Local\Temp/_gbstools/gbdk/lib/small/asxxxx/gbz80/gbz80.lib
                                          [ reverse.o ]
C:\Users\luisc\AppData\Local\Temp/_gbstools/gbdk/lib/small/asxxxx/gb/gb.lib
                                          [ far_ptr.o ]
C:\Users\luisc\AppData\Local\Temp/_gbstools/gbdk/lib/small/asxxxx/gb/gb.lib
                                          [ sgb.o ]
C:\Users\luisc\AppData\Local\Temp/_gbstools/gbdk/lib/small/asxxxx/gb/gb.lib
                                          [ lcd.o ]
C:\Users\luisc\AppData\Local\Temp/_gbstools/gbdk/lib/small/asxxxx/gb/gb.lib
                                          [ fill_rect.o ]
C:\Users\luisc\AppData\Local\Temp/_gbstools/gbdk/lib/small/asxxxx/gb/gb.lib
                                          [ cpy_data.o ]
C:\Users\luisc\AppData\Local\Temp/_gbstools/gbdk/lib/small/asxxxx/gb/gb.lib
                                          [ fill_rect_bk.o ]
C:\Users\luisc\AppData\Local\Temp/_gbstools/gbdk/lib/small/asxxxx/gb/gb.lib
                                          [ pad.o ]
C:\Users\luisc\AppData\Local\Temp/_gbstools/gbdk/lib/small/asxxxx/gb/gb.lib
                                          [ metasprites.o ]
C:\Users\luisc\AppData\Local\Temp/_gbstools/gbdk/lib/small/asxxxx/gbz80/gbz80.lib
                                          [ __sdcc_call_hl.o ]
C:\Users\luisc\AppData\Local\Temp/_gbstools/gbdk/lib/small/asxxxx/gbz80/gbz80.lib
                                          [ _memcpy.o ]
C:\Users\luisc\AppData\Local\Temp/_gbstools/gbdk/lib/small/asxxxx/gbz80/gbz80.lib
                                          [ _memset.o ]
C:\Users\luisc\AppData\Local\Temp/_gbstools/gbdk/lib/small/asxxxx/gb/gb.lib
                                          [ ___sdcc_bcall_ehl.o ]
C:\Users\luisc\AppData\Local\Temp/_gbstools/gbdk/lib/small/asxxxx/gb/gb.lib
                                          [ cgb.o ]
C:\Users\luisc\AppData\Local\Temp/_gbstools/gbdk/lib/small/asxxxx/gbz80/gbz80.lib
                                          [ div.o ]
C:\Users\luisc\AppData\Local\Temp/_gbstools/gbdk/lib/small/asxxxx/gb/gb.lib
                                          [ set_bk_t.o ]
C:\Users\luisc\AppData\Local\Temp/_gbstools/gbdk/lib/small/asxxxx/gb/gb.lib
                                          [ set_xy_t.o ]

ASxxxx Linker V03.00 + NoICE + sdld,  page 92.

User Base Address Definitions

_DATA=0xC0A0
_CODE=0x0200
ASxxxx Linker V03.00 + NoICE + sdld,  page 93.

User Global Definitions

.STACK=0xDF00
_shadow_OAM=0xC000
.refresh_OAM=0xFF80
__start_save=28

