ASxxxx Linker V03.00 + NoICE + sdld,  page 1.
Hexadecimal  [32-Bits]

Area                                    Addr        Size        Decimal Bytes (Attributes)
--------------------------------        ----        ----        ------- ----- ------------
.  .ABS.                            00000000    00000000 =           0. bytes (ABS,CON)

      Value  Global                              Global Defined In Module
      -----  --------------------------------   ------------------------
     00000000  .__.ABS.                           
     00000000  _rRAMG                             
     00000000  l__BASE                         
     00000000  l__BSS                          
     00000000  l__CABS                         
     00000000  l__CODE_0                       
     00000000  l__CRASH_HEADER                 
     00000000  l__CRASH_SCRATCH                
     00000000  l__DABS                         
     00000000  l__HEADER                       
     00000000  l__HEADER_LCD                   
     00000000  l__HEADER_SIO                   
     00000000  l__HEADER_TIMER                 
     00000000  l__HEAP                         
     00000000  l__HRAM                         
     00000000  l__LIT                          
     00000000  s__CABS                         
     00000000  s__CRASH_HEADER                 
     00000000  s__CRASH_HEADER0                
     00000000  s__CRASH_HEADER1                
     00000000  s__CRASH_SCRATCH                
     00000000  s__CRASH_SCRATCH2               
     00000000  s__DABS                         
     00000000  s__HEADER                       
     00000000  s__HEADER0                      
     00000000  s__HEADER1                      
     00000000  s__HEADER10                     
     00000000  s__HEADER11                     
     00000000  s__HEADER2                      
     00000000  s__HEADER3                      
     00000000  s__HEADER4                      
     00000000  s__HEADER5                      
     00000000  s__HEADER6                      
     00000000  s__HEADER7                      
     00000000  s__HEADER8                      
     00000000  s__HEADER9                      
     00000000  s__HEADER_LCD                   
     00000000  s__HEADER_LCD0                  
     00000000  s__HEADER_SIO                   
     00000000  s__HEADER_SIO0                  
     00000000  s__HEADER_TIMER                 
     00000000  s__HEADER_TIMER0                
     00000000  s__HEADERa                      
     00000000  s__HEADERb                      
     00000000  s__HEADERc                      
     00000000  s__HEADERd                      
     00000000  s__HEADERe                      
     00000000  s__HEADERf                      
     00000000  s__HRAM                         
     00000000  s__HRAM12                       
ASxxxx Linker V03.00 + NoICE + sdld,  page 2.
Hexadecimal  [32-Bits]

Area                                    Addr        Size        Decimal Bytes (Attributes)
--------------------------------        ----        ----        ------- ----- ------------
.  .ABS.                            00000000    00000000 =           0. bytes (ABS,CON)

      Value  Global                              Global Defined In Module
      -----  --------------------------------   ------------------------
     00000001  b_activate_actor                   actor
     00000001  b_activate_actors_in_col           actor
     00000001  b_activate_actors_in_row           actor
     00000001  b_actor_at_tile                    actor
     00000001  b_actor_get_frame_offset           actor
     00000001  b_actor_in_front_of_player         actor
     00000001  b_actor_overlapping_bb             actor
     00000001  b_actor_overlapping_player         actor
     00000001  b_actor_set_anim_idle              actor
     00000001  b_actor_set_anim_moving            actor
     00000001  b_actor_set_dir                    actor
     00000001  b_actor_set_frame_offset           actor
     00000001  b_actor_set_frames                 actor
     00000001  b_actors_handle_player_collision   actor
     00000001  b_actors_init                      actor
     00000001  b_camera_init                      camera
     00000001  b_camera_reset                     camera
     00000001  b_check_collision_in_direction     actor
     00000001  b_deactivate_actor                 actor
     00000001  b_parallax_init                    parallax
     00000001  b_player_init                      actor
     00000001  b_remove_LCD_ISRs                  interrupts
     00000001  b_scroll_init                      scroll
     00000001  b_scroll_repaint                   scroll
     00000001  b_scroll_reset                     scroll
     00000001  b_scroll_update                    scroll
     00000001  b_ui_draw_frame                    ui
     00000001  b_ui_draw_text_buffer_char         ui
     00000001  b_ui_init                          ui
     00000001  b_ui_load_tiles                    ui
     00000001  b_ui_run_menu                      ui
     00000001  b_ui_run_modal                     ui
     00000001  l__GSFINAL                      
     00000001  l__HEADER0                      
     00000001  l__HEADER11                     
     00000001  l__HEADER9                      
     00000001  l__HEADERa                      
     00000001  l__HEADERb                      
     00000001  l__HEADERd                      
     00000001  l__HEADERe                      
     00000002  b_camera_shake_frames              vm_camera
     00000002  b_itoa_fmt                         vm_ui_a
     00000002  b_script_execute                   vm
     00000002  b_script_runner_init               vm
     00000002  b_script_terminate                 vm
     00000002  b_scroll_rect                      
     00000002  b_vm_actor_activate                vm_actor
     00000002  b_vm_actor_deactivate              vm_actor
     00000002  b_vm_actor_emote                   vm_actor
     00000002  b_vm_actor_get_angle               vm_actor
     00000002  b_vm_actor_get_anim_frame          vm_actor
ASxxxx Linker V03.00 + NoICE + sdld,  page 3.
Hexadecimal  [32-Bits]

Area                                    Addr        Size        Decimal Bytes (Attributes)
--------------------------------        ----        ----        ------- ----- ------------
.  .ABS.                            00000000    00000000 =           0. bytes (ABS,CON)

      Value  Global                              Global Defined In Module
      -----  --------------------------------   ------------------------
     00000002  b_vm_actor_get_dir                 vm_actor
     00000002  b_vm_actor_get_pos                 vm_actor
     00000002  b_vm_actor_move_to                 vm_actor
     00000002  b_vm_actor_replace_tile            vm_actor
     00000002  b_vm_actor_set_anim                vm_actor
     00000002  b_vm_actor_set_anim_frame          vm_actor
     00000002  b_vm_actor_set_anim_set            vm_actor
     00000002  b_vm_actor_set_anim_tick           vm_actor
     00000002  b_vm_actor_set_bounds              vm_actor
     00000002  b_vm_actor_set_coll_enabled        vm_actor
     00000002  b_vm_actor_set_dir                 vm_actor
     00000002  b_vm_actor_set_hidden              vm_actor
     00000002  b_vm_actor_set_move_speed          vm_actor
     00000002  b_vm_actor_set_pos                 vm_actor
     00000002  b_vm_actor_set_spritesheet         vm_actor
     00000002  b_vm_actor_set_spritesheet_by_re   vm_actor
     00000002  b_vm_actor_terminate_update        vm_actor
     00000002  b_vm_call                          vm
     00000002  b_vm_call_far                      vm
     00000002  b_vm_call_rel                      vm
     00000002  b_vm_camera_move_to                vm_camera
     00000002  b_vm_camera_set_pos                vm_camera
     00000002  b_vm_choice                        vm_ui
     00000002  b_vm_context_prepare               vm_gameboy
     00000002  b_vm_cos_scale                     vm_math
     00000002  b_vm_display_text                  vm_ui
     00000002  b_vm_fade_in                       vm_gameboy
     00000002  b_vm_fade_out                      vm_gameboy
     00000002  b_vm_get_indirect                  vm
     00000002  b_vm_get_int16                     vm
     00000002  b_vm_get_int8                      vm
     00000002  b_vm_get_tile_xy                   vm_gameboy
     00000002  b_vm_get_tlocal                    vm
     00000002  b_vm_get_uint8                     vm
     00000002  b_vm_hide_sprites                  vm_gameboy
     00000002  b_vm_idle                          vm
     00000002  b_vm_if                            vm
     00000002  b_vm_if_const                      vm
     00000002  b_vm_input_attach                  vm_gameboy
     00000002  b_vm_input_detach                  vm_gameboy
     00000002  b_vm_input_get                     vm_gameboy
     00000002  b_vm_input_wait                    vm_gameboy
     00000002  b_vm_invoke                        vm
     00000002  b_vm_join                          vm
     00000002  b_vm_jump                          vm
     00000002  b_vm_jump_rel                      vm
     00000002  b_vm_load_cursor                   vm_ui
     00000002  b_vm_load_frame                    vm_ui
     00000002  b_vm_load_palette                  vm_palette
     00000002  b_vm_lock                          vm
     00000002  b_vm_loop                          vm
ASxxxx Linker V03.00 + NoICE + sdld,  page 4.
Hexadecimal  [32-Bits]

Area                                    Addr        Size        Decimal Bytes (Attributes)
--------------------------------        ----        ----        ------- ----- ------------
.  .ABS.                            00000000    00000000 =           0. bytes (ABS,CON)

      Value  Global                              Global Defined In Module
      -----  --------------------------------   ------------------------
     00000002  b_vm_loop_rel                      vm
     00000002  b_vm_memcpy                        vm
     00000002  b_vm_memset                        vm
     00000002  b_vm_music_mute                    vm_music
     00000002  b_vm_music_play                    vm_music
     00000002  b_vm_music_routine                 vm_music
     00000002  b_vm_music_setpos                  vm_music
     00000002  b_vm_music_stop                    vm_music
     00000002  b_vm_overlay_clear                 vm_ui
     00000002  b_vm_overlay_hide                  vm_ui
     00000002  b_vm_overlay_move_to               vm_ui
     00000002  b_vm_overlay_scroll                vm_ui
     00000002  b_vm_overlay_set_scroll            vm_ui
     00000002  b_vm_overlay_set_submap            vm_ui
     00000002  b_vm_overlay_setpos                vm_ui
     00000002  b_vm_overlay_show                  vm_ui
     00000002  b_vm_overlay_wait                  vm_ui
     00000002  b_vm_poll                          vm_gameboy
     00000002  b_vm_poll_loaded                   vm
     00000002  b_vm_pop                           vm
     00000002  b_vm_projectile_launch             vm_projectiles
     00000002  b_vm_push                          vm
     00000002  b_vm_push_reference                vm
     00000002  b_vm_push_value                    vm
     00000002  b_vm_push_value_ind                vm
     00000002  b_vm_raise                         vm
     00000002  b_vm_rand                          vm
     00000002  b_vm_randomize                     vm
     00000002  b_vm_replace_tile                  vm_gameboy
     00000002  b_vm_replace_tile_xy               vm_gameboy
     00000002  b_vm_reserve                       vm
     00000002  b_vm_ret                           vm
     00000002  b_vm_ret_far                       vm
     00000002  b_vm_rtc_get                       vm_rtc
     00000002  b_vm_rtc_latch                     vm_rtc
     00000002  b_vm_rtc_set                       vm_rtc
     00000002  b_vm_rtc_start                     vm_rtc
     00000002  b_vm_rumble                        vm_gameboy
     00000002  b_vm_save_clear                    vm_load_save
     00000002  b_vm_save_peek                     vm_load_save
     00000002  b_vm_scene_pop                     vm_scene
     00000002  b_vm_scene_pop_all                 vm_scene
     00000002  b_vm_scene_push                    vm_scene
     00000002  b_vm_scene_stack_reset             vm_scene
     00000002  b_vm_set                           vm
     00000002  b_vm_set_const                     vm
     00000002  b_vm_set_const_int16               vm
     00000002  b_vm_set_const_int8                vm
     00000002  b_vm_set_font                      vm_ui
     00000002  b_vm_set_indirect                  vm
     00000002  b_vm_set_int16                     vm
ASxxxx Linker V03.00 + NoICE + sdld,  page 5.
Hexadecimal  [32-Bits]

Area                                    Addr        Size        Decimal Bytes (Attributes)
--------------------------------        ----        ----        ------- ----- ------------
.  .ABS.                            00000000    00000000 =           0. bytes (ABS,CON)

      Value  Global                              Global Defined In Module
      -----  --------------------------------   ------------------------
     00000002  b_vm_set_int8                      vm
     00000002  b_vm_set_print_dir                 vm_ui
     00000002  b_vm_set_sprite_mode               vm_gameboy
     00000002  b_vm_set_uint8                     vm
     00000002  b_vm_show_sprites                  vm_gameboy
     00000002  b_vm_sin_scale                     vm_math
     00000002  b_vm_sio_exchange                  vm_sio
     00000002  b_vm_sio_set_mode                  vm_sio
     00000002  b_vm_sound_mastervol               vm_music
     00000002  b_vm_sound_play                    vm_music
     00000002  b_vm_switch_text_layer             vm_ui
     00000002  b_vm_systime                       vm
     00000002  b_vm_terminate                     vm
     00000002  b_vm_test_terminate                vm
     00000002  b_vm_timer_prepare                 vm_gameboy
     00000002  b_vm_timer_reset                   vm_gameboy
     00000002  b_vm_timer_set                     vm_gameboy
     00000002  b_vm_timer_stop                    vm_gameboy
     00000002  b_vm_unlock                        vm
     00000002  b_vm_wave_play                     vm_music
     00000002  b_wait_frames                      vm
     00000002  l__HEADER5                      
     00000002  l__HEADERc                      
     00000002  l__HEADERf                      
     00000003  b_adventure_init                   adventure
     00000003  b_adventure_update                 adventure
     00000003  b_logo_init                        logo
     00000003  b_logo_update                      logo
     00000003  b_platform_init                    platform
     00000003  b_platform_update                  platform
     00000003  b_pointnclick_init                 pointnclick
     00000003  b_pointnclick_update               pointnclick
     00000003  b_shmup_init                       shmup
     00000003  b_shmup_update                     shmup
     00000003  b_topdown_init                     topdown
     00000003  b_topdown_update                   topdown
     00000003  l__HEADER8                      
     00000003  l__HEADER_LCD0                  
     00000003  l__HRAM12                       
     00000004  b_CGBZeroPalette                   palette
     00000004  b_SIO_init                         sio
     00000004  b_core_reset                       core
     00000004  b_core_run                         core
     00000004  b_data_clear                       load_save
     00000004  b_data_init                        load_save
     00000004  b_data_load                        load_save
     00000004  b_data_peek                        load_save
     00000004  b_data_save                        load_save
     00000004  b_do_load_palette                  data_manager
     00000004  b_events_init                      events
     00000004  b_fade_applypalettechange          fade_manager
ASxxxx Linker V03.00 + NoICE + sdld,  page 6.
Hexadecimal  [32-Bits]

Area                                    Addr        Size        Decimal Bytes (Attributes)
--------------------------------        ----        ----        ------- ----- ------------
.  .ABS.                            00000000    00000000 =           0. bytes (ABS,CON)

      Value  Global                              Global Defined In Module
      -----  --------------------------------   ------------------------
     00000004  b_fade_in                          fade_manager
     00000004  b_fade_in_modal                    fade_manager
     00000004  b_fade_init                        fade_manager
     00000004  b_fade_out                         fade_manager
     00000004  b_fade_out_modal                   fade_manager
     00000004  b_fade_setspeed                    fade_manager
     00000004  b_fade_update                      fade_manager
     00000004  b_input_init                       input
     00000004  b_load_background                  data_manager
     00000004  b_load_bkg_tileset                 data_manager
     00000004  b_load_bounds                      data_manager
     00000004  b_load_emote                       data_manager
     00000004  b_load_init                        data_manager
     00000004  b_load_player                      data_manager
     00000004  b_load_scene                       data_manager
     00000004  b_load_sprite                      data_manager
     00000004  b_music_events_poll                music_manager
     00000004  b_music_init                       music_manager
     00000004  b_music_stop                       music_manager
     00000004  b_palette_init                     palette
     00000004  b_projectile_launch                projectiles
     00000004  b_projectiles_init                 projectiles
     00000004  b_restore_sram                     flasher
     00000004  b_restore_sram_bank                flasher
     00000004  b_save_sram                        flasher
     00000004  b_set_sample                       sample_player
     00000004  b_set_sgb_border                   sgb_border
     00000004  b_sound_init                       music_manager
     00000004  b_sound_play                       music_manager
     00000004  b_timers_init                      events
     00000004  b_trigger_activate_at              trigger
     00000004  b_trigger_activate_at_intersecti   trigger
     00000004  b_trigger_at_intersection          trigger
     00000004  b_trigger_at_tile                  trigger
     00000004  b_trigger_interact                 trigger
     00000004  b_trigger_reset                    trigger
     00000004  b_wave_play                        music_manager
     00000004  l__CRASH_HEADER1                
     00000004  l__HEADER_SIO0                  
     00000004  l__HEADER_TIMER0                
     00000005  ___bank_background_0               background_0
     00000005  ___bank_scene_10_collisions        scene_10_collisions
     00000005  ___bank_scene_12_collisions        scene_12_collisions
     00000005  ___bank_scene_14_collisions        scene_14_collisions
     00000005  ___bank_scene_16_collisions        scene_16_collisions
     00000005  ___bank_tileset_2                  tileset_2
     00000005  l__CRASH_HEADER0                
     00000005  l__HEADER1                      
     00000006  ___bank_scene_10_sprites           scene_10_sprites
     00000006  ___bank_scene_18_collisions        scene_18_collisions
     00000006  ___bank_scene_22_collisions        scene_22_collisions
ASxxxx Linker V03.00 + NoICE + sdld,  page 7.
Hexadecimal  [32-Bits]

Area                                    Addr        Size        Decimal Bytes (Attributes)
--------------------------------        ----        ----        ------- ----- ------------
.  .ABS.                            00000000    00000000 =           0. bytes (ABS,CON)

      Value  Global                              Global Defined In Module
      -----  --------------------------------   ------------------------
     00000006  ___bank_scene_24_collisions        scene_24_collisions
     00000006  ___bank_scene_26_collisions        scene_26_collisions
     00000006  ___bank_tileset_55                 tileset_55
     00000006  l__HEADER7                      
     00000007  ___bank_scene_16_sprites           scene_16_sprites
     00000007  ___bank_scene_30_collisions        scene_30_collisions
     00000007  ___bank_scene_32_collisions        scene_32_collisions
     00000007  ___bank_scene_34_collisions        scene_34_collisions
     00000007  ___bank_scene_8_collisions         scene_8_collisions
     00000007  ___bank_tileset_64                 tileset_64
     00000007  l__HEADER2                      
     00000008  ___bank_script_input_10            script_input_10
     00000008  ___bank_spritesheet_34             spritesheet_34
     00000008  ___bank_tilemap_23                 tilemap_23
     00000008  ___bank_tilemap_24                 tilemap_24
     00000008  ___bank_tilemap_25                 tilemap_25
     00000008  ___bank_tilemap_26                 tilemap_26
     00000008  l__HEADER3                      
     00000009  ___bank_script_input_3             script_input_3
     00000009  ___bank_spritesheet_44             spritesheet_44
     00000009  ___bank_tilemap_27                 tilemap_27
     00000009  ___bank_tilemap_28                 tilemap_28
     00000009  ___bank_tilemap_29                 tilemap_29
     00000009  ___bank_tilemap_30                 tilemap_30
     0000000A  ___bank_script_engine_init         
     0000000A  ___bank_script_input_4             script_input_4
     0000000A  ___bank_tilemap_31                 tilemap_31
     0000000A  ___bank_tilemap_32                 tilemap_32
     0000000A  ___bank_tilemap_33                 tilemap_33
     0000000A  ___bank_tilemap_34                 tilemap_34
     0000000B  ___bank_script_input_5             script_input_5
     0000000B  ___bank_script_s10a11_update       script_s10a11_update
     0000000B  ___bank_tilemap_attr_11            tilemap_attr_11
     0000000B  ___bank_tilemap_attr_12            tilemap_attr_12
     0000000B  ___bank_tilemap_attr_13            tilemap_attr_13
     0000000B  ___bank_tilemap_attr_14            tilemap_attr_14
     0000000C  ___bank_script_input_6             script_input_6
     0000000C  ___bank_script_s10a13_update       script_s10a13_update
     0000000C  ___bank_tilemap_attr_15            tilemap_attr_15
     0000000C  ___bank_tilemap_attr_16            tilemap_attr_16
     0000000C  ___bank_tilemap_attr_17            tilemap_attr_17
     0000000C  ___bank_tilemap_attr_18            tilemap_attr_18
     0000000D  ___bank_font_0                     font_0
     0000000D  ___bank_scene_20_sprites           scene_20_sprites
     0000000D  ___bank_scene_8_actors             scene_8_actors
     0000000D  ___bank_tilemap_attr_19            tilemap_attr_19
     0000000D  ___bank_tilemap_attr_20            tilemap_attr_20
     0000000D  ___bank_tilemap_attr_21            tilemap_attr_21
     0000000E  ___bank_tileset_10                 tileset_10
     0000000E  ___bank_tileset_12                 tileset_12
     0000000E  ___bank_tileset_16                 tileset_16
ASxxxx Linker V03.00 + NoICE + sdld,  page 8.
Hexadecimal  [32-Bits]

Area                                    Addr        Size        Decimal Bytes (Attributes)
--------------------------------        ----        ----        ------- ----- ------------
.  .ABS.                            00000000    00000000 =           0. bytes (ABS,CON)

      Value  Global                              Global Defined In Module
      -----  --------------------------------   ------------------------
     0000000E  ___bank_tileset_6                  tileset_6
     0000000E  ___bank_tileset_60                 tileset_60
     0000000E  ___bank_tileset_7                  tileset_7
     0000000E  ___bank_tileset_9                  tileset_9
     0000000E  l__INITIALIZED                  
     0000000E  l__INITIALIZER                  
     0000000F  ___bank_miau                       miau
     0000000F  ___bank_script_s26a18_update       script_s26a18_update
     0000000F  ___bank_script_s3a0_update         script_s3a0_update
     0000000F  ___bank_tileset_0                  tileset_0
     0000000F  ___bank_tileset_11                 tileset_11
     0000000F  ___bank_tileset_13                 tileset_13
     0000000F  ___bank_tileset_15                 tileset_15
     0000000F  ___bank_tileset_3                  tileset_3
     0000000F  ___bank_tileset_4                  tileset_4
     0000000F  ___bank_tileset_5                  tileset_5
     0000000F  ___bank_tileset_8                  tileset_8
     00000010  ___bank_scene_0_collisions         scene_0_collisions
     00000010  ___bank_scene_10_actors            scene_10_actors
     00000010  ___bank_scene_11_collisions        scene_11_collisions
     00000010  ___bank_scene_12_actors            scene_12_actors
     00000010  ___bank_scene_13_collisions        scene_13_collisions
     00000010  ___bank_scene_14_actors            scene_14_actors
     00000010  ___bank_scene_15_collisions        scene_15_collisions
     00000010  ___bank_scene_16_actors            scene_16_actors
     00000010  ___bank_scene_17_collisions        scene_17_collisions
     00000010  ___bank_scene_18_actors            scene_18_actors
     00000010  ___bank_scene_19_collisions        scene_19_collisions
     00000010  ___bank_scene_1_collisions         scene_1_collisions
     00000010  ___bank_scene_20_collisions        scene_20_collisions
     00000010  ___bank_scene_21_collisions        scene_21_collisions
     00000010  ___bank_scene_22_actors            scene_22_actors
     00000010  ___bank_scene_23_collisions        scene_23_collisions
     00000010  ___bank_scene_25_collisions        scene_25_collisions
     00000010  ___bank_scene_26_actors            scene_26_actors
     00000010  ___bank_scene_27_collisions        scene_27_collisions
     00000010  ___bank_scene_28_collisions        scene_28_collisions
     00000010  ___bank_scene_29_collisions        scene_29_collisions
     00000010  ___bank_scene_2_collisions         scene_2_collisions
     00000010  ___bank_script_input_2             script_input_2
     00000010  ___bank_script_input_7             script_input_7
     00000010  ___bank_script_input_9             script_input_9
     00000010  ___bank_script_s10a11_interact     script_s10a11_interact
     00000010  ___bank_tileset_1                  tileset_1
     00000010  ___bank_tileset_14                 tileset_14
     00000010  ___bank_tileset_40                 tileset_40
     00000010  ___bank_tileset_47                 tileset_47
     00000011  ___bank_scene_31_collisions        scene_31_collisions
     00000011  ___bank_scene_33_collisions        scene_33_collisions
     00000011  ___bank_scene_35_collisions        scene_35_collisions
     00000011  ___bank_scene_36_collisions        scene_36_collisions
ASxxxx Linker V03.00 + NoICE + sdld,  page 9.
Hexadecimal  [32-Bits]

Area                                    Addr        Size        Decimal Bytes (Attributes)
--------------------------------        ----        ----        ------- ----- ------------
.  .ABS.                            00000000    00000000 =           0. bytes (ABS,CON)

      Value  Global                              Global Defined In Module
      -----  --------------------------------   ------------------------
     00000011  ___bank_scene_37_collisions        scene_37_collisions
     00000011  ___bank_scene_38_collisions        scene_38_collisions
     00000011  ___bank_scene_39_collisions        scene_39_collisions
     00000011  ___bank_scene_3_collisions         scene_3_collisions
     00000011  ___bank_scene_40_collisions        scene_40_collisions
     00000011  ___bank_scene_4_collisions         scene_4_collisions
     00000011  ___bank_scene_5_collisions         scene_5_collisions
     00000011  ___bank_scene_6_collisions         scene_6_collisions
     00000011  ___bank_scene_7_collisions         scene_7_collisions
     00000011  ___bank_scene_9_collisions         scene_9_collisions
     00000011  ___bank_script_s0_init             script_s0_init
     00000011  ___bank_tilemap_0                  tilemap_0
     00000011  ___bank_tilemap_1                  tilemap_1
     00000011  ___bank_tilemap_10                 tilemap_10
     00000011  ___bank_tilemap_11                 tilemap_11
     00000011  ___bank_tilemap_12                 tilemap_12
     00000011  ___bank_tilemap_13                 tilemap_13
     00000011  ___bank_tilemap_14                 tilemap_14
     00000011  ___bank_tilemap_15                 tilemap_15
     00000011  ___bank_tilemap_16                 tilemap_16
     00000011  ___bank_tilemap_17                 tilemap_17
     00000011  ___bank_tilemap_18                 tilemap_18
     00000011  ___bank_tilemap_19                 tilemap_19
     00000011  ___bank_tilemap_2                  tilemap_2
     00000011  ___bank_tilemap_20                 tilemap_20
     00000011  ___bank_tilemap_21                 tilemap_21
     00000011  ___bank_tilemap_22                 tilemap_22
     00000011  ___bank_tilemap_3                  tilemap_3
     00000011  ___bank_tilemap_35                 tilemap_35
     00000011  ___bank_tilemap_36                 tilemap_36
     00000011  ___bank_tilemap_37                 tilemap_37
     00000011  ___bank_tilemap_38                 tilemap_38
     00000011  ___bank_tilemap_4                  tilemap_4
     00000011  ___bank_tilemap_5                  tilemap_5
     00000011  ___bank_tilemap_6                  tilemap_6
     00000011  ___bank_tilemap_7                  tilemap_7
     00000011  ___bank_tilemap_8                  tilemap_8
     00000011  ___bank_tilemap_9                  tilemap_9
     00000011  ___bank_tilemap_attr_0             tilemap_attr_0
     00000011  ___bank_tilemap_attr_1             tilemap_attr_1
     00000011  ___bank_tilemap_attr_10            tilemap_attr_10
     00000011  ___bank_tilemap_attr_2             tilemap_attr_2
     00000012  ___bank_scene_20_actors            scene_20_actors
     00000012  ___bank_scene_28_actors            scene_28_actors
     00000012  ___bank_scene_2_sprites            scene_2_sprites
     00000012  ___bank_script_input_0             script_input_0
     00000012  ___bank_script_s10a10_interact     script_s10a10_interact
     00000012  ___bank_script_s10a16_interact     script_s10a16_interact
     00000012  ___bank_script_s10a17_interact     script_s10a17_interact
     00000012  ___bank_script_s10a18_interact     script_s10a18_interact
     00000012  ___bank_script_s12_init            script_s12_init
ASxxxx Linker V03.00 + NoICE + sdld,  page 10.
Hexadecimal  [32-Bits]

Area                                    Addr        Size        Decimal Bytes (Attributes)
--------------------------------        ----        ----        ------- ----- ------------
.  .ABS.                            00000000    00000000 =           0. bytes (ABS,CON)

      Value  Global                              Global Defined In Module
      -----  --------------------------------   ------------------------
     00000012  ___bank_script_s12a10_interact     script_s12a10_interact
     00000012  ___bank_script_s12a12_interact     script_s12a12_interact
     00000012  ___bank_script_s12a15_interact     script_s12a15_interact
     00000012  ___bank_script_s12a5_interact      script_s12a5_interact
     00000012  ___bank_script_s14a10_interact     script_s14a10_interact
     00000012  ___bank_script_s14a11_interact     script_s14a11_interact
     00000012  ___bank_script_s14a11_update       script_s14a11_update
     00000012  ___bank_script_s14a13_interact     script_s14a13_interact
     00000012  ___bank_script_s14a14_interact     script_s14a14_interact
     00000012  ___bank_script_s14a14_update       script_s14a14_update
     00000012  ___bank_script_s14a17_interact     script_s14a17_interact
     00000012  ___bank_script_s14a4_interact      script_s14a4_interact
     00000012  ___bank_script_s14a4_update        script_s14a4_update
     00000012  ___bank_script_s16_p_hit1          script_s16_p_hit1
     00000012  ___bank_script_s16a16_interact     script_s16a16_interact
     00000012  ___bank_script_s16a18_interact     script_s16a18_interact
     00000012  ___bank_script_s16a5_interact      script_s16a5_interact
     00000012  ___bank_script_s16a6_interact      script_s16a6_interact
     00000012  ___bank_script_s16t0_interact      script_s16t0_interact
     00000012  ___bank_script_s18_p_hit1          script_s18_p_hit1
     00000012  ___bank_script_s18a12_update       script_s18a12_update
     00000012  ___bank_script_s18a16_update       script_s18a16_update
     00000012  ___bank_script_s18a7_update        script_s18a7_update
     00000012  ___bank_script_s18t0_interact      script_s18t0_interact
     00000012  ___bank_script_s20a3_interact      script_s20a3_interact
     00000012  ___bank_script_s20a3_update        script_s20a3_update
     00000012  ___bank_script_s22_init            script_s22_init
     00000012  ___bank_script_s22_p_hit1          script_s22_p_hit1
     00000012  ___bank_script_s22a18_update       script_s22a18_update
     00000012  ___bank_script_s22a5_interact      script_s22a5_interact
     00000012  ___bank_script_s22t0_interact      script_s22t0_interact
     00000012  ___bank_script_s26_p_hit1          script_s26_p_hit1
     00000012  ___bank_script_s26t0_interact      script_s26t0_interact
     00000012  ___bank_script_s28_p_hit1          script_s28_p_hit1
     00000012  ___bank_script_s28a2_interact      script_s28a2_interact
     00000012  ___bank_script_s28a2_update        script_s28a2_update
     00000012  ___bank_script_s28t0_interact      script_s28t0_interact
     00000012  ___bank_script_s6a0_update         script_s6a0_update
     00000012  ___bank_script_s8a12_interact      script_s8a12_interact
     00000012  ___bank_script_s8a14_interact      script_s8a14_interact
     00000012  ___bank_script_s8a15_interact      script_s8a15_interact
     00000012  ___bank_script_s8a7_interact       script_s8a7_interact
     00000012  ___bank_spritesheet_26             spritesheet_26
     00000012  ___bank_spritesheet_45             spritesheet_45
     00000012  ___bank_tilemap_attr_22            tilemap_attr_22
     00000012  ___bank_tilemap_attr_3             tilemap_attr_3
     00000012  ___bank_tilemap_attr_4             tilemap_attr_4
     00000012  ___bank_tilemap_attr_5             tilemap_attr_5
     00000012  ___bank_tilemap_attr_6             tilemap_attr_6
     00000012  ___bank_tilemap_attr_7             tilemap_attr_7
     00000012  ___bank_tilemap_attr_8             tilemap_attr_8
ASxxxx Linker V03.00 + NoICE + sdld,  page 11.
Hexadecimal  [32-Bits]

Area                                    Addr        Size        Decimal Bytes (Attributes)
--------------------------------        ----        ----        ------- ----- ------------
.  .ABS.                            00000000    00000000 =           0. bytes (ABS,CON)

      Value  Global                              Global Defined In Module
      -----  --------------------------------   ------------------------
     00000012  ___bank_tilemap_attr_9             tilemap_attr_9
     00000012  ___bank_tileset_28                 tileset_28
     00000012  ___bank_tileset_36                 tileset_36
     00000012  ___bank_tileset_42                 tileset_42
     00000012  ___bank_tileset_43                 tileset_43
     00000013  ___bank_scene_3_sprites            scene_3_sprites
     00000013  ___bank_script_s10_init            script_s10_init
     00000013  ___bank_script_s10a13_interact     script_s10a13_interact
     00000013  ___bank_script_s10a15_interact     script_s10a15_interact
     00000013  ___bank_script_s10a5_interact      script_s10a5_interact
     00000013  ___bank_script_s10a7_interact      script_s10a7_interact
     00000013  ___bank_script_s10a8_interact      script_s10a8_interact
     00000013  ___bank_script_s10a9_interact      script_s10a9_interact
     00000013  ___bank_script_s12a11_interact     script_s12a11_interact
     00000013  ___bank_script_s12a13_interact     script_s12a13_interact
     00000013  ___bank_script_s12a14_interact     script_s12a14_interact
     00000013  ___bank_script_s12a16_interact     script_s12a16_interact
     00000013  ___bank_script_s12a18_interact     script_s12a18_interact
     00000013  ___bank_script_s12a4_interact      script_s12a4_interact
     00000013  ___bank_script_s12a7_interact      script_s12a7_interact
     00000013  ___bank_script_s12a8_interact      script_s12a8_interact
     00000013  ___bank_script_s12a9_interact      script_s12a9_interact
     00000013  ___bank_script_s14_init            script_s14_init
     00000013  ___bank_script_s14a12_interact     script_s14a12_interact
     00000013  ___bank_script_s14a16_interact     script_s14a16_interact
     00000013  ___bank_script_s14a6_interact      script_s14a6_interact
     00000013  ___bank_script_s14a7_interact      script_s14a7_interact
     00000013  ___bank_script_s14a9_interact      script_s14a9_interact
     00000013  ___bank_script_s16_init            script_s16_init
     00000013  ___bank_script_s16a10_interact     script_s16a10_interact
     00000013  ___bank_script_s16a13_interact     script_s16a13_interact
     00000013  ___bank_script_s16a14_interact     script_s16a14_interact
     00000013  ___bank_script_s16a17_interact     script_s16a17_interact
     00000013  ___bank_script_s16a4_interact      script_s16a4_interact
     00000013  ___bank_script_s16a7_interact      script_s16a7_interact
     00000013  ___bank_script_s16a8_interact      script_s16a8_interact
     00000013  ___bank_script_s18_init            script_s18_init
     00000013  ___bank_script_s18a11_interact     script_s18a11_interact
     00000013  ___bank_script_s18a12_interact     script_s18a12_interact
     00000013  ___bank_script_s18a13_interact     script_s18a13_interact
     00000013  ___bank_script_s18a14_interact     script_s18a14_interact
     00000013  ___bank_script_s18a15_interact     script_s18a15_interact
     00000013  ___bank_script_s18a16_interact     script_s18a16_interact
     00000013  ___bank_script_s18a18_interact     script_s18a18_interact
     00000013  ___bank_script_s18a4_interact      script_s18a4_interact
     00000013  ___bank_script_s18a5_interact      script_s18a5_interact
     00000013  ___bank_script_s18a7_interact      script_s18a7_interact
     00000013  ___bank_script_s20_init            script_s20_init
     00000013  ___bank_script_s22a10_interact     script_s22a10_interact
     00000013  ___bank_script_s22a13_interact     script_s22a13_interact
     00000013  ___bank_script_s22a14_interact     script_s22a14_interact
ASxxxx Linker V03.00 + NoICE + sdld,  page 12.
Hexadecimal  [32-Bits]

Area                                    Addr        Size        Decimal Bytes (Attributes)
--------------------------------        ----        ----        ------- ----- ------------
.  .ABS.                            00000000    00000000 =           0. bytes (ABS,CON)

      Value  Global                              Global Defined In Module
      -----  --------------------------------   ------------------------
     00000013  ___bank_script_s22a15_interact     script_s22a15_interact
     00000013  ___bank_script_s22a16_interact     script_s22a16_interact
     00000013  ___bank_script_s22a17_interact     script_s22a17_interact
     00000013  ___bank_script_s22a18_interact     script_s22a18_interact
     00000013  ___bank_script_s22a6_interact      script_s22a6_interact
     00000013  ___bank_script_s22a8_interact      script_s22a8_interact
     00000013  ___bank_script_s22a9_interact      script_s22a9_interact
     00000013  ___bank_script_s26_init            script_s26_init
     00000013  ___bank_script_s26a11_interact     script_s26a11_interact
     00000013  ___bank_script_s26a12_interact     script_s26a12_interact
     00000013  ___bank_script_s26a13_interact     script_s26a13_interact
     00000013  ___bank_script_s26a15_interact     script_s26a15_interact
     00000013  ___bank_script_s26a16_interact     script_s26a16_interact
     00000013  ___bank_script_s26a17_interact     script_s26a17_interact
     00000013  ___bank_script_s26a18_interact     script_s26a18_interact
     00000013  ___bank_script_s26a19_interact     script_s26a19_interact
     00000013  ___bank_script_s26a4_interact      script_s26a4_interact
     00000013  ___bank_script_s26a6_interact      script_s26a6_interact
     00000013  ___bank_script_s26a8_interact      script_s26a8_interact
     00000013  ___bank_script_s26a9_interact      script_s26a9_interact
     00000013  ___bank_script_s28_init            script_s28_init
     00000013  ___bank_script_s8a11_interact      script_s8a11_interact
     00000013  ___bank_script_s8a13_interact      script_s8a13_interact
     00000013  ___bank_script_s8a16_interact      script_s8a16_interact
     00000013  ___bank_script_s8a17_interact      script_s8a17_interact
     00000013  ___bank_script_s8a3_interact       script_s8a3_interact
     00000013  ___bank_script_s8a5_interact       script_s8a5_interact
     00000013  ___bank_script_s8a6_interact       script_s8a6_interact
     00000013  ___bank_script_s8a8_interact       script_s8a8_interact
     00000013  ___bank_script_s8a9_interact       script_s8a9_interact
     00000013  ___bank_spritesheet_12             spritesheet_12
     00000013  ___bank_spritesheet_20             spritesheet_20
     00000014  ___bank_frame_image                frame_image
     00000014  ___bank_scene_12_projectiles       scene_12_projectiles
     00000014  ___bank_scene_24_actors            scene_24_actors
     00000014  ___bank_script_input_11            script_input_11
     00000014  ___bank_script_input_8             script_input_8
     00000014  ___bank_script_s10_p_hit1          script_s10_p_hit1
     00000014  ___bank_script_s10a0_update        script_s10a0_update
     00000014  ___bank_script_s10a1_update        script_s10a1_update
     00000014  ___bank_script_s10a2_interact      script_s10a2_interact
     00000014  ___bank_script_s10t0_interact      script_s10t0_interact
     00000014  ___bank_script_s11_init            script_s11_init
     00000014  ___bank_script_s12_p_hit1          script_s12_p_hit1
     00000014  ___bank_script_s12a0_update        script_s12a0_update
     00000014  ___bank_script_s12a10_update       script_s12a10_update
     00000014  ___bank_script_s12a15_update       script_s12a15_update
     00000014  ___bank_script_s12a17_interact     script_s12a17_interact
     00000014  ___bank_script_s12a5_update        script_s12a5_update
     00000014  ___bank_script_s12t0_interact      script_s12t0_interact
     00000014  ___bank_script_s13_init            script_s13_init
ASxxxx Linker V03.00 + NoICE + sdld,  page 13.
Hexadecimal  [32-Bits]

Area                                    Addr        Size        Decimal Bytes (Attributes)
--------------------------------        ----        ----        ------- ----- ------------
.  .ABS.                            00000000    00000000 =           0. bytes (ABS,CON)

      Value  Global                              Global Defined In Module
      -----  --------------------------------   ------------------------
     00000014  ___bank_script_s14_p_hit1          script_s14_p_hit1
     00000014  ___bank_script_s14a0_update        script_s14a0_update
     00000014  ___bank_script_s14a19_interact     script_s14a19_interact
     00000014  ___bank_script_s14t0_interact      script_s14t0_interact
     00000014  ___bank_script_s15_init            script_s15_init
     00000014  ___bank_script_s16a0_update        script_s16a0_update
     00000014  ___bank_script_s16a14_update       script_s16a14_update
     00000014  ___bank_script_s16a17_update       script_s16a17_update
     00000014  ___bank_script_s16a19_interact     script_s16a19_interact
     00000014  ___bank_script_s16a7_update        script_s16a7_update
     00000014  ___bank_script_s16a8_update        script_s16a8_update
     00000014  ___bank_script_s17_init            script_s17_init
     00000014  ___bank_script_s18a0_update        script_s18a0_update
     00000014  ___bank_script_s18a19_interact     script_s18a19_interact
     00000014  ___bank_script_s19_init            script_s19_init
     00000014  ___bank_script_s20_p_hit1          script_s20_p_hit1
     00000014  ___bank_script_s20a0_update        script_s20a0_update
     00000014  ___bank_script_s20a5_interact      script_s20a5_interact
     00000014  ___bank_script_s20t0_interact      script_s20t0_interact
     00000014  ___bank_script_s21_init            script_s21_init
     00000014  ___bank_script_s22a0_update        script_s22a0_update
     00000014  ___bank_script_s22a14_update       script_s22a14_update
     00000014  ___bank_script_s22a17_update       script_s22a17_update
     00000014  ___bank_script_s22a19_interact     script_s22a19_interact
     00000014  ___bank_script_s22a8_update        script_s22a8_update
     00000014  ___bank_script_s23_init            script_s23_init
     00000014  ___bank_script_s24_init            script_s24_init
     00000014  ___bank_script_s24a0_update        script_s24a0_update
     00000014  ___bank_script_s24t0_interact      script_s24t0_interact
     00000014  ___bank_script_s25_init            script_s25_init
     00000014  ___bank_script_s26a0_update        script_s26a0_update
     00000014  ___bank_script_s26a11_update       script_s26a11_update
     00000014  ___bank_script_s26a14_interact     script_s26a14_interact
     00000014  ___bank_script_s26a15_update       script_s26a15_update
     00000014  ___bank_script_s27_init            script_s27_init
     00000014  ___bank_script_s28a3_interact      script_s28a3_interact
     00000014  ___bank_script_s28a4_update        script_s28a4_update
     00000014  ___bank_script_s29_init            script_s29_init
     00000014  ___bank_script_s30_init            script_s30_init
     00000014  ___bank_script_s30a0_update        script_s30a0_update
     00000014  ___bank_script_s30t0_interact      script_s30t0_interact
     00000014  ___bank_script_s31_init            script_s31_init
     00000014  ___bank_script_s32_init            script_s32_init
     00000014  ___bank_script_s32a0_update        script_s32a0_update
     00000014  ___bank_script_s32t0_interact      script_s32t0_interact
     00000014  ___bank_script_s33_init            script_s33_init
     00000014  ___bank_script_s34_init            script_s34_init
     00000014  ___bank_script_s34a0_update        script_s34a0_update
     00000014  ___bank_script_s34t0_interact      script_s34t0_interact
     00000014  ___bank_script_s37_init            script_s37_init
     00000014  ___bank_script_s39_init            script_s39_init
ASxxxx Linker V03.00 + NoICE + sdld,  page 14.
Hexadecimal  [32-Bits]

Area                                    Addr        Size        Decimal Bytes (Attributes)
--------------------------------        ----        ----        ------- ----- ------------
.  .ABS.                            00000000    00000000 =           0. bytes (ABS,CON)

      Value  Global                              Global Defined In Module
      -----  --------------------------------   ------------------------
     00000014  ___bank_script_s40_init            script_s40_init
     00000014  ___bank_script_s7_init             script_s7_init
     00000014  ___bank_script_s8_init             script_s8_init
     00000014  ___bank_script_s8_p_hit1           script_s8_p_hit1
     00000014  ___bank_script_s8a0_update         script_s8a0_update
     00000014  ___bank_script_s8a1_update         script_s8a1_update
     00000014  ___bank_script_s8a2_interact       script_s8a2_interact
     00000014  ___bank_script_s8t0_interact       script_s8t0_interact
     00000014  ___bank_script_s9_init             script_s9_init
     00000014  ___bank_spritesheet_15             spritesheet_15
     00000014  ___bank_spritesheet_17             spritesheet_17
     00000014  ___bank_spritesheet_19             spritesheet_19
     00000014  ___bank_spritesheet_22             spritesheet_22
     00000014  ___bank_spritesheet_24             spritesheet_24
     00000014  ___bank_spritesheet_27             spritesheet_27
     00000014  ___bank_spritesheet_28             spritesheet_28
     00000014  ___bank_spritesheet_31             spritesheet_31
     00000014  ___bank_spritesheet_39             spritesheet_39
     00000014  ___bank_spritesheet_49             spritesheet_49
     00000014  ___bank_spritesheet_none           spritesheet_none
     00000014  ___bank_tileset_17                 tileset_17
     00000014  ___bank_tileset_19                 tileset_19
     00000014  ___bank_tileset_30                 tileset_30
     00000014  ___bank_tileset_31                 tileset_31
     00000014  ___bank_tileset_32                 tileset_32
     00000014  ___bank_tileset_33                 tileset_33
     00000014  ___bank_tileset_34                 tileset_34
     00000014  ___bank_tileset_35                 tileset_35
     00000014  ___bank_tileset_37                 tileset_37
     00000014  ___bank_tileset_38                 tileset_38
     00000014  ___bank_tileset_39                 tileset_39
     00000014  ___bank_tileset_41                 tileset_41
     00000014  ___bank_tileset_44                 tileset_44
     00000014  ___bank_tileset_45                 tileset_45
     00000014  ___bank_tileset_46                 tileset_46
     00000014  ___bank_tileset_49                 tileset_49
     00000014  ___bank_tileset_51                 tileset_51
     00000014  ___bank_tileset_52                 tileset_52
     00000014  ___bank_tileset_53                 tileset_53
     00000014  ___bank_tileset_54                 tileset_54
     00000014  ___bank_tileset_57                 tileset_57
     00000014  ___bank_tileset_58                 tileset_58
     00000014  ___bank_tileset_59                 tileset_59
     00000014  ___bank_tileset_61                 tileset_61
     00000014  ___bank_tileset_62                 tileset_62
     00000014  ___bank_tileset_63                 tileset_63
     00000015  ___bank_background_1               background_1
     00000015  ___bank_background_10              background_10
     00000015  ___bank_background_11              background_11
     00000015  ___bank_background_12              background_12
     00000015  ___bank_background_13              background_13
ASxxxx Linker V03.00 + NoICE + sdld,  page 15.
Hexadecimal  [32-Bits]

Area                                    Addr        Size        Decimal Bytes (Attributes)
--------------------------------        ----        ----        ------- ----- ------------
.  .ABS.                            00000000    00000000 =           0. bytes (ABS,CON)

      Value  Global                              Global Defined In Module
      -----  --------------------------------   ------------------------
     00000015  ___bank_background_14              background_14
     00000015  ___bank_background_15              background_15
     00000015  ___bank_background_16              background_16
     00000015  ___bank_background_17              background_17
     00000015  ___bank_background_18              background_18
     00000015  ___bank_background_19              background_19
     00000015  ___bank_background_2               background_2
     00000015  ___bank_background_20              background_20
     00000015  ___bank_background_21              background_21
     00000015  ___bank_background_22              background_22
     00000015  ___bank_background_23              background_23
     00000015  ___bank_background_24              background_24
     00000015  ___bank_background_25              background_25
     00000015  ___bank_background_26              background_26
     00000015  ___bank_background_27              background_27
     00000015  ___bank_background_28              background_28
     00000015  ___bank_background_29              background_29
     00000015  ___bank_background_3               background_3
     00000015  ___bank_background_30              background_30
     00000015  ___bank_background_31              background_31
     00000015  ___bank_cursor_image               cursor_image
     00000015  ___bank_palette_0                  palette_0
     00000015  ___bank_palette_1                  palette_1
     00000015  ___bank_palette_10                 palette_10
     00000015  ___bank_palette_11                 palette_11
     00000015  ___bank_palette_12                 palette_12
     00000015  ___bank_palette_13                 palette_13
     00000015  ___bank_palette_14                 palette_14
     00000015  ___bank_palette_15                 palette_15
     00000015  ___bank_palette_16                 palette_16
     00000015  ___bank_palette_17                 palette_17
     00000015  ___bank_palette_18                 palette_18
     00000015  ___bank_palette_19                 palette_19
     00000015  ___bank_palette_2                  palette_2
     00000015  ___bank_palette_20                 palette_20
     00000015  ___bank_palette_21                 palette_21
     00000015  ___bank_palette_22                 palette_22
     00000015  ___bank_palette_23                 palette_23
     00000015  ___bank_palette_24                 palette_24
     00000015  ___bank_palette_25                 palette_25
     00000015  ___bank_palette_26                 palette_26
     00000015  ___bank_palette_27                 palette_27
     00000015  ___bank_palette_28                 palette_28
     00000015  ___bank_palette_29                 palette_29
     00000015  ___bank_palette_3                  palette_3
     00000015  ___bank_palette_30                 palette_30
     00000015  ___bank_palette_31                 palette_31
     00000015  ___bank_palette_32                 palette_32
     00000015  ___bank_palette_33                 palette_33
     00000015  ___bank_palette_34                 palette_34
     00000015  ___bank_palette_35                 palette_35
ASxxxx Linker V03.00 + NoICE + sdld,  page 16.
Hexadecimal  [32-Bits]

Area                                    Addr        Size        Decimal Bytes (Attributes)
--------------------------------        ----        ----        ------- ----- ------------
.  .ABS.                            00000000    00000000 =           0. bytes (ABS,CON)

      Value  Global                              Global Defined In Module
      -----  --------------------------------   ------------------------
     00000015  ___bank_palette_36                 palette_36
     00000015  ___bank_palette_37                 palette_37
     00000015  ___bank_palette_38                 palette_38
     00000015  ___bank_palette_39                 palette_39
     00000015  ___bank_palette_4                  palette_4
     00000015  ___bank_palette_5                  palette_5
     00000015  ___bank_palette_6                  palette_6
     00000015  ___bank_palette_7                  palette_7
     00000015  ___bank_palette_8                  palette_8
     00000015  ___bank_palette_9                  palette_9
     00000015  ___bank_scene_0                    scene_0
     00000015  ___bank_scene_1                    scene_1
     00000015  ___bank_scene_10                   scene_10
     00000015  ___bank_scene_10_projectiles       scene_10_projectiles
     00000015  ___bank_scene_11                   scene_11
     00000015  ___bank_scene_12                   scene_12
     00000015  ___bank_scene_12_sprites           scene_12_sprites
     00000015  ___bank_scene_12_triggers          scene_12_triggers
     00000015  ___bank_scene_13                   scene_13
     00000015  ___bank_scene_14                   scene_14
     00000015  ___bank_scene_14_projectiles       scene_14_projectiles
     00000015  ___bank_scene_14_sprites           scene_14_sprites
     00000015  ___bank_scene_14_triggers          scene_14_triggers
     00000015  ___bank_scene_15                   scene_15
     00000015  ___bank_scene_16                   scene_16
     00000015  ___bank_scene_16_projectiles       scene_16_projectiles
     00000015  ___bank_scene_17                   scene_17
     00000015  ___bank_scene_18                   scene_18
     00000015  ___bank_scene_18_projectiles       scene_18_projectiles
     00000015  ___bank_scene_18_sprites           scene_18_sprites
     00000015  ___bank_scene_19                   scene_19
     00000015  ___bank_scene_2                    scene_2
     00000015  ___bank_scene_20                   scene_20
     00000015  ___bank_scene_20_projectiles       scene_20_projectiles
     00000015  ___bank_scene_21                   scene_21
     00000015  ___bank_scene_22                   scene_22
     00000015  ___bank_scene_22_projectiles       scene_22_projectiles
     00000015  ___bank_scene_22_sprites           scene_22_sprites
     00000015  ___bank_scene_22_triggers          scene_22_triggers
     00000015  ___bank_scene_23                   scene_23
     00000015  ___bank_scene_24                   scene_24
     00000015  ___bank_scene_24_projectiles       scene_24_projectiles
     00000015  ___bank_scene_24_sprites           scene_24_sprites
     00000015  ___bank_scene_25                   scene_25
     00000015  ___bank_scene_26                   scene_26
     00000015  ___bank_scene_26_projectiles       scene_26_projectiles
     00000015  ___bank_scene_26_sprites           scene_26_sprites
     00000015  ___bank_scene_26_triggers          scene_26_triggers
     00000015  ___bank_scene_27                   scene_27
     00000015  ___bank_scene_28                   scene_28
     00000015  ___bank_scene_28_projectiles       scene_28_projectiles
ASxxxx Linker V03.00 + NoICE + sdld,  page 17.
Hexadecimal  [32-Bits]

Area                                    Addr        Size        Decimal Bytes (Attributes)
--------------------------------        ----        ----        ------- ----- ------------
.  .ABS.                            00000000    00000000 =           0. bytes (ABS,CON)

      Value  Global                              Global Defined In Module
      -----  --------------------------------   ------------------------
     00000015  ___bank_scene_28_sprites           scene_28_sprites
     00000015  ___bank_scene_29                   scene_29
     00000015  ___bank_scene_2_actors             scene_2_actors
     00000015  ___bank_scene_3                    scene_3
     00000015  ___bank_scene_30                   scene_30
     00000015  ___bank_scene_30_actors            scene_30_actors
     00000015  ___bank_scene_30_projectiles       scene_30_projectiles
     00000015  ___bank_scene_31                   scene_31
     00000015  ___bank_scene_32                   scene_32
     00000015  ___bank_scene_32_actors            scene_32_actors
     00000015  ___bank_scene_32_projectiles       scene_32_projectiles
     00000015  ___bank_scene_33                   scene_33
     00000015  ___bank_scene_34                   scene_34
     00000015  ___bank_scene_34_actors            scene_34_actors
     00000015  ___bank_scene_34_projectiles       scene_34_projectiles
     00000015  ___bank_scene_35                   scene_35
     00000015  ___bank_scene_36                   scene_36
     00000015  ___bank_scene_37                   scene_37
     00000015  ___bank_scene_38                   scene_38
     00000015  ___bank_scene_39                   scene_39
     00000015  ___bank_scene_39_actors            scene_39_actors
     00000015  ___bank_scene_3_actors             scene_3_actors
     00000015  ___bank_scene_4                    scene_4
     00000015  ___bank_scene_40                   scene_40
     00000015  ___bank_scene_40_actors            scene_40_actors
     00000015  ___bank_scene_5                    scene_5
     00000015  ___bank_scene_6                    scene_6
     00000015  ___bank_scene_6_actors             scene_6_actors
     00000015  ___bank_scene_7                    scene_7
     00000015  ___bank_scene_8                    scene_8
     00000015  ___bank_scene_8_projectiles        scene_8_projectiles
     00000015  ___bank_scene_8_sprites            scene_8_sprites
     00000015  ___bank_scene_9                    scene_9
     00000015  ___bank_script_input_1             script_input_1
     00000015  ___bank_script_s10a10_update       script_s10a10_update
     00000015  ___bank_script_s10a12_interact     script_s10a12_interact
     00000015  ___bank_script_s10a14_interact     script_s10a14_interact
     00000015  ___bank_script_s10a15_update       script_s10a15_update
     00000015  ___bank_script_s10a16_update       script_s10a16_update
     00000015  ___bank_script_s10a17_update       script_s10a17_update
     00000015  ___bank_script_s10a18_update       script_s10a18_update
     00000015  ___bank_script_s10a19_interact     script_s10a19_interact
     00000015  ___bank_script_s10a5_update        script_s10a5_update
     00000015  ___bank_script_s10a6_interact      script_s10a6_interact
     00000015  ___bank_script_s10a7_update        script_s10a7_update
     00000015  ___bank_script_s10a8_update        script_s10a8_update
     00000015  ___bank_script_s10a9_update        script_s10a9_update
     00000015  ___bank_script_s12a11_update       script_s12a11_update
     00000015  ___bank_script_s12a12_update       script_s12a12_update
     00000015  ___bank_script_s12a13_update       script_s12a13_update
     00000015  ___bank_script_s12a14_update       script_s12a14_update
ASxxxx Linker V03.00 + NoICE + sdld,  page 18.
Hexadecimal  [32-Bits]

Area                                    Addr        Size        Decimal Bytes (Attributes)
--------------------------------        ----        ----        ------- ----- ------------
.  .ABS.                            00000000    00000000 =           0. bytes (ABS,CON)

      Value  Global                              Global Defined In Module
      -----  --------------------------------   ------------------------
     00000015  ___bank_script_s12a16_update       script_s12a16_update
     00000015  ___bank_script_s12a18_update       script_s12a18_update
     00000015  ___bank_script_s12a19_interact     script_s12a19_interact
     00000015  ___bank_script_s12a4_update        script_s12a4_update
     00000015  ___bank_script_s12a6_interact      script_s12a6_interact
     00000015  ___bank_script_s12a7_update        script_s12a7_update
     00000015  ___bank_script_s12a8_update        script_s12a8_update
     00000015  ___bank_script_s12a9_update        script_s12a9_update
     00000015  ___bank_script_s12t1_interact      script_s12t1_interact
     00000015  ___bank_script_s14a10_update       script_s14a10_update
     00000015  ___bank_script_s14a12_update       script_s14a12_update
     00000015  ___bank_script_s14a13_update       script_s14a13_update
     00000015  ___bank_script_s14a15_interact     script_s14a15_interact
     00000015  ___bank_script_s14a16_update       script_s14a16_update
     00000015  ___bank_script_s14a17_update       script_s14a17_update
     00000015  ___bank_script_s14a18_interact     script_s14a18_interact
     00000015  ___bank_script_s14a5_interact      script_s14a5_interact
     00000015  ___bank_script_s14a6_update        script_s14a6_update
     00000015  ___bank_script_s14a7_update        script_s14a7_update
     00000015  ___bank_script_s14a8_interact      script_s14a8_interact
     00000015  ___bank_script_s14a9_update        script_s14a9_update
     00000015  ___bank_script_s14t1_interact      script_s14t1_interact
     00000015  ___bank_script_s16a10_update       script_s16a10_update
     00000015  ___bank_script_s16a11_interact     script_s16a11_interact
     00000015  ___bank_script_s16a12_interact     script_s16a12_interact
     00000015  ___bank_script_s16a13_update       script_s16a13_update
     00000015  ___bank_script_s16a15_interact     script_s16a15_interact
     00000015  ___bank_script_s16a16_update       script_s16a16_update
     00000015  ___bank_script_s16a18_update       script_s16a18_update
     00000015  ___bank_script_s16a4_update        script_s16a4_update
     00000015  ___bank_script_s16a5_update        script_s16a5_update
     00000015  ___bank_script_s16a6_update        script_s16a6_update
     00000015  ___bank_script_s16a9_interact      script_s16a9_interact
     00000015  ___bank_script_s18a10_interact     script_s18a10_interact
     00000015  ___bank_script_s18a10_update       script_s18a10_update
     00000015  ___bank_script_s18a11_update       script_s18a11_update
     00000015  ___bank_script_s18a13_update       script_s18a13_update
     00000015  ___bank_script_s18a14_update       script_s18a14_update
     00000015  ___bank_script_s18a15_update       script_s18a15_update
     00000015  ___bank_script_s18a17_interact     script_s18a17_interact
     00000015  ___bank_script_s18a17_update       script_s18a17_update
     00000015  ___bank_script_s18a18_update       script_s18a18_update
     00000015  ___bank_script_s18a4_update        script_s18a4_update
     00000015  ___bank_script_s18a5_update        script_s18a5_update
     00000015  ___bank_script_s18a6_interact      script_s18a6_interact
     00000015  ___bank_script_s18a6_update        script_s18a6_update
     00000015  ___bank_script_s18a8_interact      script_s18a8_interact
     00000015  ___bank_script_s18a8_update        script_s18a8_update
     00000015  ___bank_script_s18a9_interact      script_s18a9_interact
     00000015  ___bank_script_s18a9_update        script_s18a9_update
     00000015  ___bank_script_s1_init             script_s1_init
ASxxxx Linker V03.00 + NoICE + sdld,  page 19.
Hexadecimal  [32-Bits]

Area                                    Addr        Size        Decimal Bytes (Attributes)
--------------------------------        ----        ----        ------- ----- ------------
.  .ABS.                            00000000    00000000 =           0. bytes (ABS,CON)

      Value  Global                              Global Defined In Module
      -----  --------------------------------   ------------------------
     00000015  ___bank_script_s22a10_update       script_s22a10_update
     00000015  ___bank_script_s22a12_interact     script_s22a12_interact
     00000015  ___bank_script_s22a13_update       script_s22a13_update
     00000015  ___bank_script_s22a15_update       script_s22a15_update
     00000015  ___bank_script_s22a16_update       script_s22a16_update
     00000015  ___bank_script_s22a4_interact      script_s22a4_interact
     00000015  ___bank_script_s22a6_update        script_s22a6_update
     00000015  ___bank_script_s22a7_interact      script_s22a7_interact
     00000015  ___bank_script_s22a9_update        script_s22a9_update
     00000015  ___bank_script_s22t1_interact      script_s22t1_interact
     00000015  ___bank_script_s26a10_interact     script_s26a10_interact
     00000015  ___bank_script_s26a12_update       script_s26a12_update
     00000015  ___bank_script_s26a13_update       script_s26a13_update
     00000015  ___bank_script_s26a16_update       script_s26a16_update
     00000015  ___bank_script_s26a17_update       script_s26a17_update
     00000015  ___bank_script_s26a19_update       script_s26a19_update
     00000015  ___bank_script_s26a4_update        script_s26a4_update
     00000015  ___bank_script_s26a5_interact      script_s26a5_interact
     00000015  ___bank_script_s26a6_update        script_s26a6_update
     00000015  ___bank_script_s26a7_interact      script_s26a7_interact
     00000015  ___bank_script_s26a8_update        script_s26a8_update
     00000015  ___bank_script_s26a9_update        script_s26a9_update
     00000015  ___bank_script_s26t1_interact      script_s26t1_interact
     00000015  ___bank_script_s26t2_interact      script_s26t2_interact
     00000015  ___bank_script_s2_init             script_s2_init
     00000015  ___bank_script_s2a0_update         script_s2a0_update
     00000015  ___bank_script_s38_init            script_s38_init
     00000015  ___bank_script_s3_init             script_s3_init
     00000015  ___bank_script_s4_init             script_s4_init
     00000015  ___bank_script_s5_init             script_s5_init
     00000015  ___bank_script_s6_init             script_s6_init
     00000015  ___bank_script_s8a11_update        script_s8a11_update
     00000015  ___bank_script_s8a12_update        script_s8a12_update
     00000015  ___bank_script_s8a13_update        script_s8a13_update
     00000015  ___bank_script_s8a14_update        script_s8a14_update
     00000015  ___bank_script_s8a15_update        script_s8a15_update
     00000015  ___bank_script_s8a16_update        script_s8a16_update
     00000015  ___bank_script_s8a17_update        script_s8a17_update
     00000015  ___bank_script_s8a3_update         script_s8a3_update
     00000015  ___bank_script_s8a5_update         script_s8a5_update
     00000015  ___bank_script_s8a6_update         script_s8a6_update
     00000015  ___bank_script_s8a7_update         script_s8a7_update
     00000015  ___bank_script_s8a8_update         script_s8a8_update
     00000015  ___bank_script_s8a9_update         script_s8a9_update
     00000015  ___bank_spritesheet_0              spritesheet_0
     00000015  ___bank_spritesheet_1              spritesheet_1
     00000015  ___bank_spritesheet_10             spritesheet_10
     00000015  ___bank_spritesheet_11             spritesheet_11
     00000015  ___bank_spritesheet_13             spritesheet_13
     00000015  ___bank_spritesheet_14             spritesheet_14
     00000015  ___bank_spritesheet_16             spritesheet_16
ASxxxx Linker V03.00 + NoICE + sdld,  page 20.
Hexadecimal  [32-Bits]

Area                                    Addr        Size        Decimal Bytes (Attributes)
--------------------------------        ----        ----        ------- ----- ------------
.  .ABS.                            00000000    00000000 =           0. bytes (ABS,CON)

      Value  Global                              Global Defined In Module
      -----  --------------------------------   ------------------------
     00000015  ___bank_spritesheet_18             spritesheet_18
     00000015  ___bank_spritesheet_2              spritesheet_2
     00000015  ___bank_spritesheet_21             spritesheet_21
     00000015  ___bank_spritesheet_23             spritesheet_23
     00000015  ___bank_spritesheet_25             spritesheet_25
     00000015  ___bank_spritesheet_29             spritesheet_29
     00000015  ___bank_spritesheet_3              spritesheet_3
     00000015  ___bank_spritesheet_30             spritesheet_30
     00000015  ___bank_spritesheet_32             spritesheet_32
     00000015  ___bank_spritesheet_33             spritesheet_33
     00000015  ___bank_spritesheet_35             spritesheet_35
     00000015  ___bank_spritesheet_36             spritesheet_36
     00000015  ___bank_spritesheet_37             spritesheet_37
     00000015  ___bank_spritesheet_38             spritesheet_38
     00000015  ___bank_spritesheet_4              spritesheet_4
     00000015  ___bank_spritesheet_40             spritesheet_40
     00000015  ___bank_spritesheet_41             spritesheet_41
     00000015  ___bank_spritesheet_42             spritesheet_42
     00000015  ___bank_spritesheet_43             spritesheet_43
     00000015  ___bank_spritesheet_46             spritesheet_46
     00000015  ___bank_spritesheet_47             spritesheet_47
     00000015  ___bank_spritesheet_48             spritesheet_48
     00000015  ___bank_spritesheet_5              spritesheet_5
     00000015  ___bank_spritesheet_6              spritesheet_6
     00000015  ___bank_spritesheet_7              spritesheet_7
     00000015  ___bank_spritesheet_8              spritesheet_8
     00000015  ___bank_spritesheet_9              spritesheet_9
     00000015  ___bank_tileset_18                 tileset_18
     00000015  ___bank_tileset_20                 tileset_20
     00000015  ___bank_tileset_21                 tileset_21
     00000015  ___bank_tileset_22                 tileset_22
     00000015  ___bank_tileset_23                 tileset_23
     00000015  ___bank_tileset_24                 tileset_24
     00000015  ___bank_tileset_25                 tileset_25
     00000015  ___bank_tileset_26                 tileset_26
     00000015  ___bank_tileset_27                 tileset_27
     00000015  ___bank_tileset_29                 tileset_29
     00000015  ___bank_tileset_48                 tileset_48
     00000015  ___bank_tileset_50                 tileset_50
     00000016  ___bank_background_32              background_32
     00000016  ___bank_background_33              background_33
     00000016  ___bank_background_34              background_34
     00000016  ___bank_background_35              background_35
     00000016  ___bank_background_36              background_36
     00000016  ___bank_background_37              background_37
     00000016  ___bank_background_38              background_38
     00000016  ___bank_background_4               background_4
     00000016  ___bank_background_5               background_5
     00000016  ___bank_background_6               background_6
     00000016  ___bank_background_7               background_7
     00000016  ___bank_background_8               background_8
ASxxxx Linker V03.00 + NoICE + sdld,  page 21.
Hexadecimal  [32-Bits]

Area                                    Addr        Size        Decimal Bytes (Attributes)
--------------------------------        ----        ----        ------- ----- ------------
.  .ABS.                            00000000    00000000 =           0. bytes (ABS,CON)

      Value  Global                              Global Defined In Module
      -----  --------------------------------   ------------------------
     00000016  ___bank_background_9               background_9
     00000016  ___bank_bootstrap_script           
     00000016  ___bank_scene_10_triggers          scene_10_triggers
     00000016  ___bank_scene_16_triggers          scene_16_triggers
     00000016  ___bank_scene_18_triggers          scene_18_triggers
     00000016  ___bank_scene_20_triggers          scene_20_triggers
     00000016  ___bank_scene_24_triggers          scene_24_triggers
     00000016  ___bank_scene_28_triggers          scene_28_triggers
     00000016  ___bank_scene_30_sprites           scene_30_sprites
     00000016  ___bank_scene_30_triggers          scene_30_triggers
     00000016  ___bank_scene_32_sprites           scene_32_sprites
     00000016  ___bank_scene_32_triggers          scene_32_triggers
     00000016  ___bank_scene_34_sprites           scene_34_sprites
     00000016  ___bank_scene_34_triggers          scene_34_triggers
     00000016  ___bank_scene_39_sprites           scene_39_sprites
     00000016  ___bank_scene_40_sprites           scene_40_sprites
     00000016  ___bank_scene_6_sprites            scene_6_sprites
     00000016  ___bank_scene_8_triggers           scene_8_triggers
     00000016  ___bank_script_s10a12_update       script_s10a12_update
     00000016  ___bank_script_s10a14_update       script_s10a14_update
     00000016  ___bank_script_s10a19_update       script_s10a19_update
     00000016  ___bank_script_s10a6_update        script_s10a6_update
     00000016  ___bank_script_s12a6_update        script_s12a6_update
     00000016  ___bank_script_s14a15_update       script_s14a15_update
     00000016  ___bank_script_s14a18_update       script_s14a18_update
     00000016  ___bank_script_s14a5_update        script_s14a5_update
     00000016  ___bank_script_s14a8_update        script_s14a8_update
     00000016  ___bank_script_s16a11_update       script_s16a11_update
     00000016  ___bank_script_s16a12_update       script_s16a12_update
     00000016  ___bank_script_s16a15_update       script_s16a15_update
     00000016  ___bank_script_s16a9_update        script_s16a9_update
     00000016  ___bank_script_s22a4_update        script_s22a4_update
     00000016  ___bank_script_s22a5_update        script_s22a5_update
     00000016  ___bank_script_s22a7_update        script_s22a7_update
     00000016  ___bank_script_s26a10_update       script_s26a10_update
     00000016  ___bank_script_s26a5_update        script_s26a5_update
     00000016  ___bank_script_s26a7_update        script_s26a7_update
     00000016  ___bank_tileset_56                 tileset_56
     0000001C  __start_save                    
     00000030  l__HEADER6                      
     00000033  l__GSINIT                       
     0000004E  l__HEADER4                      
     00000082  l__HEADER10                     
     000001CB  l__CRASH_SCRATCH2               
     00000200  s__CODE                         
     00000242  l__CODE_22                      
     000006C3  l__CODE                         
     000008C3  s__HOME                         
     000008F0  ___size_miau                       miau
     000018F6  l__DATA                         
     00002000  _rROMB0                            
ASxxxx Linker V03.00 + NoICE + sdld,  page 22.
Hexadecimal  [32-Bits]

Area                                    Addr        Size        Decimal Bytes (Attributes)
--------------------------------        ----        ----        ------- ----- ------------
.  .ABS.                            00000000    00000000 =           0. bytes (ABS,CON)

      Value  Global                              Global Defined In Module
      -----  --------------------------------   ------------------------
     00002745  l__HOME                         
     0000293B  l__CODE_4                       
     00002ADB  l__CODE_3                       
     00003000  _rROMB1                            
     00003008  s__BASE                         
     00003008  s__CODE_0                       
     00003008  s__INITIALIZER                  
     00003008  s__LIT                          
     00003016  s__GSINIT                       
     00003049  s__GSFINAL                      
     00003199  l__CODE_1                       
     00003951  l__CODE_2                       
     00003FFE  l__CODE_14                      
     00003FFE  l__CODE_15                      
     00003FFF  l__CODE_10                      
     00003FFF  l__CODE_11                      
     00003FFF  l__CODE_12                      
     00003FFF  l__CODE_13                      
     00003FFF  l__CODE_17                      
     00003FFF  l__CODE_18                      
     00003FFF  l__CODE_21                      
     00004000  _RTC_SELECT_REG                    vm_rtc
     00004000  _rRAMB                             
     00004000  l__CODE_16                      
     00004000  l__CODE_19                      
     00004000  l__CODE_20                      
     00004000  l__CODE_5                       
     00004000  l__CODE_6                       
     00004000  l__CODE_7                       
     00004000  l__CODE_8                       
     00004000  l__CODE_9                       
     00006000  _RTC_LATCH_REG                     vm_rtc
     00008000  __VRAM                             
     00008000  __VRAM8000                         
     00008800  __VRAM8800                         
     00009000  __VRAM9000                         
     00009800  __SCRN0                            
     00009C00  __SCRN1                            
     0000A000  _RTC_VALUE_REG                     vm_rtc
     0000A000  __SRAM                             
     0000C000  __RAM                              
     0000C000  _shadow_OAM                     
     0000C0A0  s__DATA                         
     0000D000  __RAMBANK                          
     0000D996  s__BSS                          
     0000D996  s__INITIALIZED                  
     0000D9A4  s__HEAP                         
     0000DF00  .STACK                          
     0000DF00  _shadow_OAM2                       absolute
     0000DFA0  _BkgPalette                        absolute
     0000DFE0  _vwf_tile_data                     absolute
ASxxxx Linker V03.00 + NoICE + sdld,  page 23.
Hexadecimal  [32-Bits]

Area                                    Addr        Size        Decimal Bytes (Attributes)
--------------------------------        ----        ----        ------- ----- ------------
.  .ABS.                            00000000    00000000 =           0. bytes (ABS,CON)

      Value  Global                              Global Defined In Module
      -----  --------------------------------   ------------------------
     0000FE00  __OAMRAM                           
     0000FF00  _P1_REG                            
     0000FF00  __IO                               
     0000FF01  _SB_REG                            
     0000FF02  _SC_REG                            
     0000FF04  _DIV_REG                           
     0000FF05  _TIMA_REG                          
     0000FF06  _TMA_REG                           
     0000FF07  _TAC_REG                           
     0000FF0F  _IF_REG                            
     0000FF10  _NR10_REG                          
     0000FF11  _NR11_REG                          
     0000FF12  _NR12_REG                          
     0000FF13  _NR13_REG                          
     0000FF14  _NR14_REG                          
     0000FF16  _NR21_REG                          
     0000FF17  _NR22_REG                          
     0000FF18  _NR23_REG                          
     0000FF19  _NR24_REG                          
     0000FF1A  _NR30_REG                          
     0000FF1B  _NR31_REG                          
     0000FF1C  _NR32_REG                          
     0000FF1D  _NR33_REG                          
     0000FF1E  _NR34_REG                          
     0000FF20  _NR41_REG                          
     0000FF21  _NR42_REG                          
     0000FF22  _NR43_REG                          
     0000FF23  _NR44_REG                          
     0000FF24  _NR50_REG                          
     0000FF25  _NR51_REG                          
     0000FF26  _NR52_REG                          
     0000FF30  _PCM_SAMPLE                        
     0000FF30  __AUD3WAVERAM                      
     0000FF40  _LCDC_REG                          
     0000FF41  _STAT_REG                          
     0000FF42  _SCY_REG                           
     0000FF43  _SCX_REG                           
     0000FF44  _LY_REG                            
     0000FF45  _LYC_REG                           
     0000FF46  _DMA_REG                           
     0000FF47  _BGP_REG                           
     0000FF48  _OBP0_REG                          
     0000FF49  _OBP1_REG                          
     0000FF4A  _WY_REG                            
     0000FF4B  _WX_REG                            
     0000FF4D  _KEY1_REG                          
     0000FF4F  _VBK_REG                           
     0000FF51  _HDMA1_REG                         
     0000FF52  _HDMA2_REG                         
     0000FF53  _HDMA3_REG                         
     0000FF54  _HDMA4_REG                         
ASxxxx Linker V03.00 + NoICE + sdld,  page 24.
Hexadecimal  [32-Bits]

Area                                    Addr        Size        Decimal Bytes (Attributes)
--------------------------------        ----        ----        ------- ----- ------------
.  .ABS.                            00000000    00000000 =           0. bytes (ABS,CON)

      Value  Global                              Global Defined In Module
      -----  --------------------------------   ------------------------
     0000FF55  _HDMA5_REG                         
     0000FF56  _RP_REG                            
     0000FF68  _BCPS_REG                          
     0000FF69  _BCPD_REG                          
     0000FF6A  _OCPS_REG                          
     0000FF6B  _OCPD_REG                          
     0000FF70  _SVBK_REG                          
     0000FF76  _PCM12_REG                         
     0000FF77  _PCM34_REG                         
     0000FF80  .refresh_OAM                    
     0000FF80  __HRAM                             
     0000FFFF  _IE_REG                            
     00014000  s__CODE_1                       
     00024000  s__CODE_2                       
     00034000  s__CODE_3                       
     00044000  s__CODE_4                       
     00054000  s__CODE_5                       
     00064000  s__CODE_6                       
     00074000  s__CODE_7                       
     00084000  s__CODE_8                       
     00094000  s__CODE_9                       
     000A4000  s__CODE_10                      
     000B4000  s__CODE_11                      
     000C4000  s__CODE_12                      
     000D4000  s__CODE_13                      
     000E4000  s__CODE_14                      
     000F4000  s__CODE_15                      
     00104000  s__CODE_16                      
     00114000  s__CODE_17                      
     00124000  s__CODE_18                      
     00134000  s__CODE_19                      
     00144000  s__CODE_20                      
     00154000  s__CODE_21                      
     00164000  s__CODE_22                      
ASxxxx Linker V03.00 + NoICE + sdld,  page 25.
Hexadecimal  [32-Bits]

Area                                    Addr        Size        Decimal Bytes (Attributes)
--------------------------------        ----        ----        ------- ----- ------------
_CODE                               00000200    000006C3 =        1731. bytes (REL,CON)

      Value  Global                              Global Defined In Module
      -----  --------------------------------   ------------------------
     00000200  ___HandleCrash                     
     0000020A  _SIO_send_byte                     
     0000021D  _SIO_receive                       
     0000022E  _hide_hardware_sprites             OAM_utils
     0000025A  _SetTile                           
     00000269  _set_win_tile_xy                   
     0000026E  _set_bkg_tile_xy                   
     00000291  _GetWinAddr                        
     00000299  _GetBkgAddr                        
     000002A7  _state_init                        
     000002AC  _state_update                      
     000002CE  _ui_time_masks                     
     000002D6  _ui_print_shift_char               
     00000359  _ui_draw_frame_row                 
     00000362  .ui_draw_frame_row                 
     0000038B  _script_cmds                       vm_instructions
     00000529  _start_scene_x                     
     0000052B  _start_scene_y                     
     0000052D  _start_scene_dir                   
     0000052E  _start_scene                       
     00000531  _start_player_move_speed           
     00000532  _start_player_anim_tick            
     00000533  _ui_fonts                          
     00000536  _core_reset_hook                   main
     0000053E  _main                              main
     00000546  _state_start_fns                   
     00000558  _state_update_fns                  
     00000587  gbt_get_pattern_ptr_banked         
     000005A6  _gbt_play                          
     00000661  _gbt_pause                         
     00000672  _gbt_loop                          
     00000679  _gbt_stop                          
     00000684  _gbt_enable_channels               
     0000068B  _gbt_update                        
     00000790  _set_sprite_palette                CGB
     00000795  _set_bkg_palette                   CGB
     00000798  .set_palette                       CGB
     000007B7  _set_sprite_palette_entry          CGB
     000007BC  _set_bkg_palette_entry             CGB
     000007BF  .set_palette_entry                 CGB
     000007DB  .sgb_check                         
     000007DB  _sgb_check                         
     00000823  _sgb_transfer                      
     00000828  .sgb_transfer                      
     00000869  ___move_metasprite                 Metasprites
     000008A1  _cpu_slow                          CGB
     000008BC  _cpu_fast                          CGB

ASxxxx Linker V03.00 + NoICE + sdld,  page 26.
Hexadecimal  [32-Bits]

Area                                    Addr        Size        Decimal Bytes (Attributes)
--------------------------------        ----        ----        ------- ----- ------------
_HEADER0                            00000000    00000001 =           1. bytes (ABS,CON)

      Value  Global                              Global Defined In Module
      -----  --------------------------------   ------------------------
     00000020  .call_hl                           Runtime

ASxxxx Linker V03.00 + NoICE + sdld,  page 27.
Hexadecimal  [32-Bits]

Area                                    Addr        Size        Decimal Bytes (Attributes)
--------------------------------        ----        ----        ------- ----- ------------
_HEADER1                            00000000    00000005 =           5. bytes (ABS,CON)

      Value  Global                              Global Defined In Module
      -----  --------------------------------   ------------------------
     00000028  .MemsetSmall                       Runtime

ASxxxx Linker V03.00 + NoICE + sdld,  page 28.
Hexadecimal  [32-Bits]

Area                                    Addr        Size        Decimal Bytes (Attributes)
--------------------------------        ----        ----        ------- ----- ------------
_HEADER2                            00000000    00000007 =           7. bytes (ABS,CON)

      Value  Global                              Global Defined In Module
      -----  --------------------------------   ------------------------
     00000030  .MemcpySmall                       Runtime

ASxxxx Linker V03.00 + NoICE + sdld,  page 29.
Hexadecimal  [32-Bits]

Area                                    Addr        Size        Decimal Bytes (Attributes)
--------------------------------        ----        ----        ------- ----- ------------
_HEADER3                            00000000    00000008 =           8. bytes (ABS,CON)

      Value  Global                              Global Defined In Module
      -----  --------------------------------   ------------------------
ASxxxx Linker V03.00 + NoICE + sdld,  page 30.
Hexadecimal  [32-Bits]

Area                                    Addr        Size        Decimal Bytes (Attributes)
--------------------------------        ----        ----        ------- ----- ------------
_HEADER4                            00000000    0000004E =          78. bytes (ABS,CON)

      Value  Global                              Global Defined In Module
      -----  --------------------------------   ------------------------
     00000080  .int                               Runtime
     0000008F  _wait_int_handler                  Runtime
     0000009C  __standard_VBL_handler             Runtime
     000000AC  _refresh_OAM                       Runtime

ASxxxx Linker V03.00 + NoICE + sdld,  page 31.
Hexadecimal  [32-Bits]

Area                                    Addr        Size        Decimal Bytes (Attributes)
--------------------------------        ----        ----        ------- ----- ------------
_HEADER5                            00000000    00000002 =           2. bytes (ABS,CON)

      Value  Global                              Global Defined In Module
      -----  --------------------------------   ------------------------
ASxxxx Linker V03.00 + NoICE + sdld,  page 32.
Hexadecimal  [32-Bits]

Area                                    Addr        Size        Decimal Bytes (Attributes)
--------------------------------        ----        ----        ------- ----- ------------
_HEADER6                            00000000    00000030 =          48. bytes (ABS,CON)

      Value  Global                              Global Defined In Module
      -----  --------------------------------   ------------------------
ASxxxx Linker V03.00 + NoICE + sdld,  page 33.
Hexadecimal  [32-Bits]

Area                                    Addr        Size        Decimal Bytes (Attributes)
--------------------------------        ----        ----        ------- ----- ------------
_HEADER7                            00000000    00000006 =           6. bytes (ABS,CON)

      Value  Global                              Global Defined In Module
      -----  --------------------------------   ------------------------
ASxxxx Linker V03.00 + NoICE + sdld,  page 34.
Hexadecimal  [32-Bits]

Area                                    Addr        Size        Decimal Bytes (Attributes)
--------------------------------        ----        ----        ------- ----- ------------
_HEADER8                            00000000    00000003 =           3. bytes (ABS,CON)

      Value  Global                              Global Defined In Module
      -----  --------------------------------   ------------------------
ASxxxx Linker V03.00 + NoICE + sdld,  page 35.
Hexadecimal  [32-Bits]

Area                                    Addr        Size        Decimal Bytes (Attributes)
--------------------------------        ----        ----        ------- ----- ------------
_HEADER9                            00000000    00000001 =           1. bytes (ABS,CON)

      Value  Global                              Global Defined In Module
      -----  --------------------------------   ------------------------
ASxxxx Linker V03.00 + NoICE + sdld,  page 36.
Hexadecimal  [32-Bits]

Area                                    Addr        Size        Decimal Bytes (Attributes)
--------------------------------        ----        ----        ------- ----- ------------
_HEADERa                            00000000    00000001 =           1. bytes (ABS,CON)

      Value  Global                              Global Defined In Module
      -----  --------------------------------   ------------------------
ASxxxx Linker V03.00 + NoICE + sdld,  page 37.
Hexadecimal  [32-Bits]

Area                                    Addr        Size        Decimal Bytes (Attributes)
--------------------------------        ----        ----        ------- ----- ------------
_HEADERb                            00000000    00000001 =           1. bytes (ABS,CON)

      Value  Global                              Global Defined In Module
      -----  --------------------------------   ------------------------
ASxxxx Linker V03.00 + NoICE + sdld,  page 38.
Hexadecimal  [32-Bits]

Area                                    Addr        Size        Decimal Bytes (Attributes)
--------------------------------        ----        ----        ------- ----- ------------
_HEADERc                            00000000    00000002 =           2. bytes (ABS,CON)

      Value  Global                              Global Defined In Module
      -----  --------------------------------   ------------------------
ASxxxx Linker V03.00 + NoICE + sdld,  page 39.
Hexadecimal  [32-Bits]

Area                                    Addr        Size        Decimal Bytes (Attributes)
--------------------------------        ----        ----        ------- ----- ------------
_HEADERd                            00000000    00000001 =           1. bytes (ABS,CON)

      Value  Global                              Global Defined In Module
      -----  --------------------------------   ------------------------
ASxxxx Linker V03.00 + NoICE + sdld,  page 40.
Hexadecimal  [32-Bits]

Area                                    Addr        Size        Decimal Bytes (Attributes)
--------------------------------        ----        ----        ------- ----- ------------
_HEADERe                            00000000    00000001 =           1. bytes (ABS,CON)

      Value  Global                              Global Defined In Module
      -----  --------------------------------   ------------------------
ASxxxx Linker V03.00 + NoICE + sdld,  page 41.
Hexadecimal  [32-Bits]

Area                                    Addr        Size        Decimal Bytes (Attributes)
--------------------------------        ----        ----        ------- ----- ------------
_HEADERf                            00000000    00000002 =           2. bytes (ABS,CON)

      Value  Global                              Global Defined In Module
      -----  --------------------------------   ------------------------
ASxxxx Linker V03.00 + NoICE + sdld,  page 42.
Hexadecimal  [32-Bits]

Area                                    Addr        Size        Decimal Bytes (Attributes)
--------------------------------        ----        ----        ------- ----- ------------
_HEADER10                           00000000    00000082 =         130. bytes (ABS,CON)

      Value  Global                              Global Defined In Module
      -----  --------------------------------   ------------------------
     00000150  .reset                             Runtime
     00000150  _reset                             Runtime
     00000157  .code_start                        Runtime
     000001B7  _exit                              Runtime
     000001BB  _set_interrupts                    Runtime

ASxxxx Linker V03.00 + NoICE + sdld,  page 43.
Hexadecimal  [32-Bits]

Area                                    Addr        Size        Decimal Bytes (Attributes)
--------------------------------        ----        ----        ------- ----- ------------
_HEADER11                           00000000    00000001 =           1. bytes (ABS,CON)

      Value  Global                              Global Defined In Module
      -----  --------------------------------   ------------------------
ASxxxx Linker V03.00 + NoICE + sdld,  page 44.
Hexadecimal  [32-Bits]

Area                                    Addr        Size        Decimal Bytes (Attributes)
--------------------------------        ----        ----        ------- ----- ------------
_HOME                               000008C3    00002745 =       10053. bytes (REL,CON)

      Value  Global                              Global Defined In Module
      -----  --------------------------------   ------------------------
     000008C3  .memset_simple                     Runtime
     000008CC  .memcpy_simple                     Runtime
     000008E9  .remove_VBL                        Runtime
     000008EC  .remove_int                        Runtime
     00000909  .add_VBL                           Runtime
     0000090C  .add_int                           Runtime
     00000917  .wait_vbl_done                     Runtime
     00000917  _wait_vbl_done                     Runtime
     00000927  .display_off                       Runtime
     00000927  _display_off                       Runtime
     0000093F  _remove_VBL                        Runtime
     0000094A  _add_VBL                           Runtime
     00000955  _actors_update                     actor
     00000CC8  _SetBankedBkgData                  bankdata
     00000CE4  _SetBankedSpriteData               bankdata
     00000D00  _SetBankedBkgTiles                 bankdata
     00000D1C  _SetBankedWinTiles                 bankdata
     00000D38  _ReadBankedFarPtr                  bankdata
     00000D5F  _ReadBankedUWORD                   bankdata
     00000D7B  _MemcpyBanked                      bankdata
     00000D97  _MemcpyVRAMBanked                  bankdata
     00000DB3  _camera_update                     camera
     00000EE6  _load_animations                   data_manager
     00000F45  _events_update                     events
     00001015  _timers_update                     events
     0000109D  _input_update                      input
     000010CC  .sio_ISR                           
     00001126  .timer_ISR                         
     0000113B  _simple_LCD_isr                    interrupts
     00001186  _fullscreen_LCD_isr                interrupts
     000011B7  _VBL_isr                           interrupts
     000011F4  _isqrt                             math
     0000124A  _sine_wave                         math
     0000134A  _dir_lookup                        math
     00001352  _dir_angle_lookup                  math
     00001356  _music_events_update               music_manager
     000013D8  _music_play                        music_manager
     0000144A  _music_mute                        music_manager
     0000145C  _music_update                      music_manager
     000014AB  _sound_stop                        music_manager
     000014DC  _parallax_LCD_isr                  parallax
     00001519  _projectiles_update                projectiles
     000018D2  _projectiles_render                projectiles
     00001A45  _sample_play_isr                   sample_player
     00001AC4  _scroll_load_pending_row           scroll
     00001B50  _scroll_load_row                   scroll
     00001BCA  _scroll_load_col                   scroll
     00001C35  _scroll_load_pending_col           scroll
     00001CC6  _set_bkg_submap                    
     00001D09  _set_xy_win_submap                 
ASxxxx Linker V03.00 + NoICE + sdld,  page 45.
Hexadecimal  [32-Bits]

Area                                    Addr        Size        Decimal Bytes (Attributes)
--------------------------------        ----        ----        ------- ----- ------------
_HOME                               000008C3    00002745 =       10053. bytes (REL,CON)

      Value  Global                              Global Defined In Module
      -----  --------------------------------   ------------------------
     00001D32  .set_xy_win_submap                 
     00001D3B  .set_xy_bkg_submap                 
     00001D4A  .set_xy_submap                     
     00001D90  _on_SIO_receive                    sio
     00001DD1  _SIO_update                        sio
     00001E38  _ui_update                         ui
     00001EF8  _vm_sgb_transfer                   vm_sgb
     00001F46  _vm_load_text                      vm_ui
     0000219B  _vm_beginthread                    vm
     000022C0  _vm_rpn                            vm
     00002984  _vm_call_native                    vm
     0000298E  _VM_STEP                           vm
     000029F8  _script_runner_update              vm
     00002B72  _fill_win_rect                     
     00002B84  _rand                              
     00002B84  _randw                             
     00002BAF  _initrand                          
     00002BB1  .initrand                          
     00002BBA  __mulsuchar                        mul
     00002BC4  __muluschar                        mul
     00002BCE  __mulschar                         mul
     00002BE0  __muluchar                         mul
     00002BEC  __mulint                           mul
     00002C12  _abs                               abs
     00002C21  _set_win_tiles                     
     00002C35  _set_tile_data                     
     00002C3A  _set_bkg_data                      
     00002C3A  _set_win_data                      
     00002C42  _set_sprite_data                   
     00002C72  _reverse                           reverse
     00002CA6  ___call__banked                    far_ptr
     00002CC3  _to_far_ptr                        far_ptr
     00002CFC  _add_LCD                           
     00002D07  .add_LCD                           
     00002D0D  _remove_LCD                        
     00002D18  .remove_LCD                        
     00002D1E  .fill_rect_wtt                     
     00002D27  .fill_rect_btt                     
     00002D74  .copy_vram                         
     00002D88  _get_data                          
     00002D88  _set_data                          
     00002D88  _vmemcpy                           
     00002D9B  _fill_bkg_rect                     
     00002DAD  .padup                             
     00002DAD  _waitpadup                         
     00002DBD  .jpad                              
     00002DBD  _joypad                            
     00002DE5  _waitpad                           
     00002DE8  .wait_pad                          
     00002DEF  ___sdcc_call_hl                    call_hl
     00002DF0  ___memcpy                          memcpy
ASxxxx Linker V03.00 + NoICE + sdld,  page 46.
Hexadecimal  [32-Bits]

Area                                    Addr        Size        Decimal Bytes (Attributes)
--------------------------------        ----        ----        ------- ----- ------------
_HOME                               000008C3    00002745 =       10053. bytes (REL,CON)

      Value  Global                              Global Defined In Module
      -----  --------------------------------   ------------------------
     00002DF0  _memcpy                            memcpy
     00002E33  _memset                            memset
     00002E66  ___sdcc_bcall_ehl                  
     00002E77  __divsuchar                        div
     00002E84  __modsuchar                        div
     00002E8E  __divuschar                        div
     00002EA0  __moduschar                        div
     00002EB0  __divschar                         div
     00002EBC  __modschar                         div
     00002EC6  __divsint                          div
     00002ED7  __modsint                          div
     00002EE6  __divuchar                         div
     00002EF2  __moduchar                         div
     00002EFC  __divuint                          div
     00002F0D  __moduint                          div
     00002F1C  .div8                              div
     00002F1C  .mod8                              div
     00002F24  .div16                             div
     00002F24  .mod16                             div
     00002F5A  .divu8                             div
     00002F5A  .modu8                             div
     00002F5D  .divu16                            div
     00002F5D  .modu16                            div
     00002F9E  _set_bkg_tiles                     
     00002FB2  .set_xy_wtt                        
     00002FBB  .set_xy_btt                        
     00002FCA  .set_xy_tt                         

ASxxxx Linker V03.00 + NoICE + sdld,  page 47.
Hexadecimal  [32-Bits]

Area                                    Addr        Size        Decimal Bytes (Attributes)
--------------------------------        ----        ----        ------- ----- ------------
_INITIALIZER                        00003008    0000000E =          14. bytes (REL,CON)

      Value  Global                              Global Defined In Module
      -----  --------------------------------   ------------------------
ASxxxx Linker V03.00 + NoICE + sdld,  page 48.
Hexadecimal  [32-Bits]

Area                                    Addr        Size        Decimal Bytes (Attributes)
--------------------------------        ----        ----        ------- ----- ------------
_GSINIT                             00003016    00000033 =          51. bytes (REL,CON)

      Value  Global                              Global Defined In Module
      -----  --------------------------------   ------------------------
     00003016  gsinit                             Runtime

ASxxxx Linker V03.00 + NoICE + sdld,  page 49.
Hexadecimal  [32-Bits]

Area                                    Addr        Size        Decimal Bytes (Attributes)
--------------------------------        ----        ----        ------- ----- ------------
_GSFINAL                            00003049    00000001 =           1. bytes (REL,CON)

      Value  Global                              Global Defined In Module
      -----  --------------------------------   ------------------------
ASxxxx Linker V03.00 + NoICE + sdld,  page 50.
Hexadecimal  [32-Bits]

Area                                    Addr        Size        Decimal Bytes (Attributes)
--------------------------------        ----        ----        ------- ----- ------------
_DATA                               0000C0A0    000018F6 =        6390. bytes (REL,CON)

      Value  Global                              Global Defined In Module
      -----  --------------------------------   ------------------------
     0000C0A0  __cpu                              Runtime
     0000C0A1  __is_GBA                           Runtime
     0000C0A2  .mode                              Runtime
     0000C0A3  .sys_time                          Runtime
     0000C0A3  _sys_time                          Runtime
     0000C0A5  .int_0x40                          Runtime
     0000C0B9  _actors                            actor
     0000C4D3  _actors_active_head                actor
     0000C4D5  _actors_inactive_head              actor
     0000C4D7  _screen_x                          actor
     0000C4D8  _screen_y                          actor
     0000C4D9  _invalid                           actor
     0000C4DB  _player_moving                     actor
     0000C4DC  _player_iframes                    actor
     0000C4DD  _player_collision_actor            actor
     0000C4DF  _emote_actor                       actor
     0000C4E1  _emote_timer                       actor
     0000C4E2  _allocated_hardware_sprites        actor
     0000C4EA  _camera_x                          camera
     0000C4EC  _camera_y                          camera
     0000C4EE  _camera_offset_x                   camera
     0000C4EF  _camera_offset_y                   camera
     0000C4F0  _camera_deadzone_x                 camera
     0000C4F1  _camera_deadzone_y                 camera
     0000C4F2  _camera_settings                   camera
     0000C4F6  _current_scene                     data_manager
     0000C4F9  _image_bank                        data_manager
     0000C4FA  _image_ptr                         data_manager
     0000C4FC  _image_attr_bank                   data_manager
     0000C4FD  _image_attr_ptr                    data_manager
     0000C4FF  _collision_bank                    data_manager
     0000C500  _collision_ptr                     data_manager
     0000C502  _image_tile_width                  data_manager
     0000C503  _image_tile_height                 data_manager
     0000C504  _image_width                       data_manager
     0000C506  _image_height                      data_manager
     0000C508  _sprites_len                       data_manager
     0000C509  _actors_len                        data_manager
     0000C50A  _projectiles_len                   data_manager
     0000C50B  _player_sprite_len                 data_manager
     0000C50C  _scene_type                        data_manager
     0000C50D  _scene_LCD_type                    data_manager
     0000C50E  _scene_stack                       data_manager
     0000C54E  _scene_stack_ptr                   data_manager
     0000C553  _input_events                      events
     0000C57B  _input_slots                       events
     0000C583  _timer_events                      events
     0000C597  _timer_values                      events
     0000C59F  _fade_running                      fade_manager
     0000C5A0  _fade_frames_per_step              fade_manager
ASxxxx Linker V03.00 + NoICE + sdld,  page 51.
Hexadecimal  [32-Bits]

Area                                    Addr        Size        Decimal Bytes (Attributes)
--------------------------------        ----        ----        ------- ----- ------------
_DATA                               0000C0A0    000018F6 =        6390. bytes (REL,CON)

      Value  Global                              Global Defined In Module
      -----  --------------------------------   ------------------------
     0000C5A1  _fade_timer                        fade_manager
     0000C5A4  _joypads                           input
     0000C5A9  _frame_joy                         input
     0000C5AA  _last_joy                          input
     0000C5AB  _recent_joy                        input
     0000C5AC  _SIO_status                        
     0000C5AD  _link_byte_sent                    
     0000C5AE  _link_next_mode                    
     0000C5AF  _save_blob_size                    load_save
     0000C5B1  _current_track                     music_manager
     0000C5B3  _tone_frames                       music_manager
     0000C5B4  _channel_mask                      music_manager
     0000C5B5  _sound_channel                     music_manager
     0000C5B6  _current_track_bank                music_manager
     0000C5B7  _routine_queue                     music_manager
     0000C5BB  _routine_queue_head                music_manager
     0000C5BC  _routine_queue_tail                music_manager
     0000C5BD  _music_events                      music_manager
     0000C5D1  _DMG_palette                       palette
     0000C5D4  _SprPalette                        palette
     0000C614  _parallax_rows                     parallax
     0000C626  _parallax_row                      parallax
     0000C628  _projectiles                       projectiles
     0000C6E1  _projectile_defs                   projectiles
     0000C754  _projectiles_active_head           projectiles
     0000C756  _projectiles_inactive_head         projectiles
     0000C75D  _scroll_x                          scroll
     0000C75F  _scroll_y                          scroll
     0000C761  _draw_scroll_x                     scroll
     0000C763  _draw_scroll_y                     scroll
     0000C765  _scroll_x_max                      scroll
     0000C767  _scroll_y_max                      scroll
     0000C769  _scroll_offset_x                   scroll
     0000C76A  _scroll_offset_y                   scroll
     0000C76B  _pending_h_x                       scroll
     0000C76C  _pending_h_y                       scroll
     0000C76D  _pending_h_i                       scroll
     0000C76E  _pending_w_x                       scroll
     0000C76F  _pending_w_y                       scroll
     0000C770  _pending_w_i                       scroll
     0000C771  _current_row                       scroll
     0000C773  _new_row                           scroll
     0000C775  _current_col                       scroll
     0000C777  _new_col                           scroll
     0000C779  .image_tile_width                  
     0000C77A  _link_operation_mode               sio
     0000C77B  _link_packet                       sio
     0000C79B  _link_packet_len                   sio
     0000C79C  _link_packet_ptr                   sio
     0000C79E  _link_packet_received              sio
     0000C79F  _link_packet_snd_len               sio
ASxxxx Linker V03.00 + NoICE + sdld,  page 52.
Hexadecimal  [32-Bits]

Area                                    Addr        Size        Decimal Bytes (Attributes)
--------------------------------        ----        ----        ------- ----- ------------
_DATA                               0000C0A0    000018F6 =        6390. bytes (REL,CON)

      Value  Global                              Global Defined In Module
      -----  --------------------------------   ------------------------
     0000C7A0  _link_packet_snd_ptr               sio
     0000C7A2  _link_packet_sent                  sio
     0000C7A3  __is_CGB                           system
     0000C7A4  __is_SGB                           system
     0000C7A5  _triggers                          trigger
     0000C89D  _last_trigger_tx                   trigger
     0000C89E  _last_trigger_ty                   trigger
     0000C89F  _last_trigger                      trigger
     0000C8A0  _win_pos_x                         ui
     0000C8A1  _win_dest_pos_x                    ui
     0000C8A2  _win_pos_y                         ui
     0000C8A3  _win_dest_pos_y                    ui
     0000C8A4  _win_speed                         ui
     0000C8A5  _text_drawn                        ui
     0000C8A6  _current_text_speed                ui
     0000C8A7  _text_wait                         ui
     0000C8A8  _text_in_speed                     ui
     0000C8A9  _text_out_speed                    ui
     0000C8AA  _text_draw_speed                   ui
     0000C8AB  _text_ff_joypad                    ui
     0000C8AC  _text_ff                           ui
     0000C8AD  _text_bkg_fill                     ui
     0000C8AE  _ui_text_data                      ui
     0000C9B8  _vwf_current_mask                  ui
     0000C9B9  _vwf_current_rotate                ui
     0000C9BA  _vwf_inverse_map                   ui
     0000C9BB  _vwf_direction                     ui
     0000C9BC  _vwf_current_font_desc             ui
     0000C9C4  _vwf_current_font_bank             ui
     0000C9C5  _vwf_current_font_idx              ui
     0000C9C6  _text_render_base_addr             ui
     0000C9C8  _text_scroll_addr                  ui
     0000C9CA  _text_scroll_width                 ui
     0000C9CB  _text_scroll_height                ui
     0000C9CC  _text_scroll_fill                  ui
     0000C9D2  __itoa_fmt_len                     vm_ui_a
     0000C9D3  .itoa_fmt_buf                      vm_ui_a
     0000C9D6  _CTXS                              vm
     0000CB06  _first_ctx                         vm
     0000CB08  _free_ctxs                         vm
     0000CB0A  _vm_lock_state                     vm
     0000CB0B  _vm_loaded_state                   vm
     0000CB0C  _vm_exception_code                 vm
     0000CB0D  _vm_exception_params_length        vm
     0000CB0E  _vm_exception_params_bank          vm
     0000CB0F  _vm_exception_params_offset        vm
     0000CB11  _script_memory                     vm
     0000D919  _grounded                          platform
     0000D91A  _on_ladder                         platform
     0000D91B  _pl_vel_x                          platform
     0000D91D  _pl_vel_y                          platform
ASxxxx Linker V03.00 + NoICE + sdld,  page 53.
Hexadecimal  [32-Bits]

Area                                    Addr        Size        Decimal Bytes (Attributes)
--------------------------------        ----        ----        ------- ----- ------------
_DATA                               0000C0A0    000018F6 =        6390. bytes (REL,CON)

      Value  Global                              Global Defined In Module
      -----  --------------------------------   ------------------------
     0000D91F  _plat_min_vel                      platform
     0000D921  _plat_walk_vel                     platform
     0000D923  _plat_climb_vel                    platform
     0000D925  _plat_run_vel                      platform
     0000D927  _plat_walk_acc                     platform
     0000D929  _plat_run_acc                      platform
     0000D92B  _plat_dec                          platform
     0000D92D  _plat_jump_vel                     platform
     0000D92F  _plat_grav                         platform
     0000D931  _plat_hold_grav                    platform
     0000D933  _plat_max_fall_vel                 platform
     0000D935  _shooter_reached_end               shmup
     0000D936  _shooter_dest                      shmup
     0000D938  _shooter_direction                 shmup
     0000D939  _topdown_grid                      topdown
     0000D93A  gbt_playing                        
     0000D93B  gbt_song                           
     0000D93D  gbt_bank                           
     0000D93E  gbt_speed                          
     0000D93F  gbt_temp_play_data                 
     0000D94B  gbt_loop_enabled                   
     0000D94C  gbt_ticks_elapsed                  
     0000D94D  gbt_current_step                   
     0000D94E  gbt_current_pattern                
     0000D94F  gbt_current_step_data_ptr          
     0000D951  gbt_channels_enabled               
     0000D952  gbt_pan                            
     0000D956  gbt_vol                            
     0000D95A  gbt_instr                          
     0000D95E  gbt_freq                           
     0000D964  __current_ch3_wave                 
     0000D964  __gbt_channel3_loaded_instrument   
     0000D964  gbt_channel3_loaded_instrument     
     0000D965  gbt_arpeggio_freq_index            
     0000D96E  gbt_arpeggio_enabled               
     0000D971  gbt_arpeggio_tick                  
     0000D974  gbt_sweep                          
     0000D977  gbt_cut_note_tick                  
     0000D97B  gbt_have_to_stop_next_step         
     0000D97C  gbt_update_pattern_pointers        
     0000D97D  .randhi                            
     0000D97E  .randlo                            
     0000D97F  ___call_banked_addr                far_ptr
     0000D97F  ___call_banked_ptr                 far_ptr
     0000D981  ___call_banked_bank                far_ptr
     0000D983  .int_0x48                          
     0000D993  ___current_metasprite              Metasprites
     0000D995  ___current_base_tile               Metasprites

ASxxxx Linker V03.00 + NoICE + sdld,  page 54.
Hexadecimal  [32-Bits]

Area                                    Addr        Size        Decimal Bytes (Attributes)
--------------------------------        ----        ----        ------- ----- ------------
_INITIALIZED                        0000D996    0000000E =          14. bytes (REL,CON)

      Value  Global                              Global Defined In Module
      -----  --------------------------------   ------------------------
     0000D996  _fade_style                        fade_manager
     0000D997  _game_time                         game_time
     0000D998  _hide_sprites                      interrupts
     0000D999  _ISR_counter                       music_manager
     0000D99A  _play_bank                         sample_player
     0000D99B  _play_sample                       sample_player
     0000D99D  _play_length                       sample_player
     0000D99F  _triggers_len                      trigger
     0000D9A0  _exchange_state                    vm_sio
     0000D9A1  _last_hit_trigger                  pointnclick
     0000D9A2  _shooter_scroll_speed              shmup
     0000D9A3  ___render_shadow_OAM               Metasprites
ASxxxx Linker V03.00 + NoICE + sdld,  page 55.
Hexadecimal  [32-Bits]

Area                                    Addr        Size        Decimal Bytes (Attributes)
--------------------------------        ----        ----        ------- ----- ------------
_HRAM12                             00000000    00000003 =           3. bytes (ABS,CON)

      Value  Global                              Global Defined In Module
      -----  --------------------------------   ------------------------
     0000FF90  __current_bank                     Runtime
     0000FF92  __shadow_OAM_base                  Runtime

ASxxxx Linker V03.00 + NoICE + sdld,  page 56.
Hexadecimal  [32-Bits]

Area                                    Addr        Size        Decimal Bytes (Attributes)
--------------------------------        ----        ----        ------- ----- ------------
_CODE_1                             00014000    00003199 =       12697. bytes (REL,CON)

      Value  Global                              Global Defined In Module
      -----  --------------------------------   ------------------------
     00014000  _actors_init                       actor
     00014034  _emote_offsets                     actor
     00014043  _emote_metasprite                  actor
     0001404F  _player_init                       actor
     00014062  _deactivate_actor                  actor
     00014169  _activate_actor                    actor
     00014294  _activate_actors_in_row            actor
     0001438B  _activate_actors_in_col            actor
     000144DC  _actor_set_frames                  actor
     00014530  _actor_set_frame_offset            actor
     0001456D  _actor_get_frame_offset            actor
     00014580  _actor_set_anim_idle               actor
     000145AE  _actor_set_anim_moving             actor
     000145DF  _actor_set_dir                     actor
     00014644  _actor_at_tile                     actor
     00014719  _actor_in_front_of_player          actor
     00014800  _actor_overlapping_player          actor
     00014A98  _actor_overlapping_bb              actor
     00014CB6  _actors_handle_player_collision    actor
     00014D41  _check_collision_in_direction      actor
     00015480  _camera_init                       camera
     0001549E  _camera_reset                      camera
     000154AE  _remove_LCD_ISRs                   interrupts
     000154CF  _parallax_init                     parallax
     000154F3  _scroll_init                       scroll
     0001551D  _scroll_reset                      scroll
     0001553D  _scroll_update                     scroll
     00015654  _scroll_viewport                   scroll
     00015AE8  _scroll_repaint                    scroll
     00015B46  _scroll_render_rows                scroll
     00015BCE  _scroll_queue_row                  scroll
     00015BF3  _scroll_queue_col                  scroll
     00015C3F  _ui_swap_tiles                     
     00015C89  _ui_print_make_mask_lr             
     00015CA5  _ui_print_make_mask_rl             
     00015CC1  _ui_init                           ui
     00015D7A  _ui_load_tiles                     ui
     00015DD1  _ui_draw_frame                     ui
     00015E62  _ui_print_reset                    ui
     00015EB8  _ui_print_render                   ui
     00016159  _ui_draw_text_buffer_char          ui
     00016632  _ui_run_menu                       ui
     000168BC  _ui_run_modal                      ui
     00016AC2  gbt_channel_1_handle               
     00016C9C  gbt_channel_2_handle               
     00016E6E  gbt_channel_3_handle               
     00017047  gbt_channel_4_handle               
     00017160  gbt_update_bank1                   
     0001717C  gbt_update_effects_bank1           

ASxxxx Linker V03.00 + NoICE + sdld,  page 57.
Hexadecimal  [32-Bits]

Area                                    Addr        Size        Decimal Bytes (Attributes)
--------------------------------        ----        ----        ------- ----- ------------
_CODE_22                            00164000    00000242 =         578. bytes (REL,CON)

      Value  Global                              Global Defined In Module
      -----  --------------------------------   ------------------------
     00164000  _bootstrap_script                  
     0016400B  ___func_background_32              background_32
     0016400B  _background_32                     background_32
     00164019  ___func_background_33              background_33
     00164019  _background_33                     background_33
     00164027  ___func_background_34              background_34
     00164027  _background_34                     background_34
     00164035  ___func_background_35              background_35
     00164035  _background_35                     background_35
     00164043  ___func_background_36              background_36
     00164043  _background_36                     background_36
     00164051  ___func_background_37              background_37
     00164051  _background_37                     background_37
     0016405F  ___func_background_38              background_38
     0016405F  _background_38                     background_38
     0016406D  ___func_background_4               background_4
     0016406D  _background_4                      background_4
     0016407B  ___func_background_5               background_5
     0016407B  _background_5                      background_5
     00164089  ___func_background_6               background_6
     00164089  _background_6                      background_6
     00164097  ___func_background_7               background_7
     00164097  _background_7                      background_7
     001640A5  ___func_background_8               background_8
     001640A5  _background_8                      background_8
     001640B3  ___func_background_9               background_9
     001640B3  _background_9                      background_9
     001640C1  ___func_scene_10_triggers          scene_10_triggers
     001640C1  _scene_10_triggers                 scene_10_triggers
     001640C9  ___func_scene_16_triggers          scene_16_triggers
     001640C9  _scene_16_triggers                 scene_16_triggers
     001640D1  ___func_scene_18_triggers          scene_18_triggers
     001640D1  _scene_18_triggers                 scene_18_triggers
     001640D9  ___func_scene_20_triggers          scene_20_triggers
     001640D9  _scene_20_triggers                 scene_20_triggers
     001640E1  ___func_scene_24_triggers          scene_24_triggers
     001640E1  _scene_24_triggers                 scene_24_triggers
     001640E9  ___func_scene_28_triggers          scene_28_triggers
     001640E9  _scene_28_triggers                 scene_28_triggers
     001640F1  ___func_scene_30_sprites           scene_30_sprites
     001640F1  _scene_30_sprites                  scene_30_sprites
     001640FA  ___func_scene_30_triggers          scene_30_triggers
     001640FA  _scene_30_triggers                 scene_30_triggers
     00164102  ___func_scene_32_sprites           scene_32_sprites
     00164102  _scene_32_sprites                  scene_32_sprites
     0016410B  ___func_scene_32_triggers          scene_32_triggers
     0016410B  _scene_32_triggers                 scene_32_triggers
     00164113  ___func_scene_34_sprites           scene_34_sprites
     00164113  _scene_34_sprites                  scene_34_sprites
     0016411C  ___func_scene_34_triggers          scene_34_triggers
ASxxxx Linker V03.00 + NoICE + sdld,  page 58.
Hexadecimal  [32-Bits]

Area                                    Addr        Size        Decimal Bytes (Attributes)
--------------------------------        ----        ----        ------- ----- ------------
_CODE_22                            00164000    00000242 =         578. bytes (REL,CON)

      Value  Global                              Global Defined In Module
      -----  --------------------------------   ------------------------
     0016411C  _scene_34_triggers                 scene_34_triggers
     00164124  ___func_scene_39_sprites           scene_39_sprites
     00164124  _scene_39_sprites                  scene_39_sprites
     00164127  ___func_scene_40_sprites           scene_40_sprites
     00164127  _scene_40_sprites                  scene_40_sprites
     0016412A  ___func_scene_6_sprites            scene_6_sprites
     0016412A  _scene_6_sprites                   scene_6_sprites
     0016412D  ___func_scene_8_triggers           scene_8_triggers
     0016412D  _scene_8_triggers                  scene_8_triggers
     00164135  _script_s10a12_update              script_s10a12_update
     00164143  _script_s10a14_update              script_s10a14_update
     00164151  _script_s10a19_update              script_s10a19_update
     0016415F  _script_s10a6_update               script_s10a6_update
     0016416D  _script_s12a6_update               script_s12a6_update
     0016417B  _script_s14a15_update              script_s14a15_update
     00164189  _script_s14a18_update              script_s14a18_update
     00164197  _script_s14a5_update               script_s14a5_update
     001641A5  _script_s14a8_update               script_s14a8_update
     001641B3  _script_s16a11_update              script_s16a11_update
     001641C1  _script_s16a12_update              script_s16a12_update
     001641CF  _script_s16a15_update              script_s16a15_update
     001641DD  _script_s16a9_update               script_s16a9_update
     001641EB  _script_s22a4_update               script_s22a4_update
     001641F9  _script_s22a5_update               script_s22a5_update
     00164207  _script_s22a7_update               script_s22a7_update
     00164215  _script_s26a10_update              script_s26a10_update
     00164223  _script_s26a5_update               script_s26a5_update
     00164231  _script_s26a7_update               script_s26a7_update
     0016423F  ___func_tileset_56                 tileset_56
     0016423F  _tileset_56                        tileset_56

ASxxxx Linker V03.00 + NoICE + sdld,  page 59.
Hexadecimal  [32-Bits]

Area                                    Addr        Size        Decimal Bytes (Attributes)
--------------------------------        ----        ----        ------- ----- ------------
_CODE_4                             00044000    0000293B =       10555. bytes (REL,CON)

      Value  Global                              Global Defined In Module
      -----  --------------------------------   ------------------------
     00044000  _core_reset                        core
     00044075  _process_VM                        core
     0004431C  _core_run                          core
     000443E4  ___HandleCrash_banked              
     0004474B  _load_init                         data_manager
     0004475E  _spritesheet_none_far              data_manager
     00044761  _load_bkg_tileset                  data_manager
     0004486E  _load_background                   data_manager
     0004496C  _load_sprite                       data_manager
     00044A69  _load_bounds                       data_manager
     00044A89  _do_load_palette                   data_manager
     00044B09  _get_farptr_index                  data_manager
     00044B9F  _load_scene                        data_manager
     000454CE  _load_player                       data_manager
     0004551A  _load_emote                        data_manager
     0004552E  _events_init                       events
     0004556E  _timers_init                       events
     000455AE  _CGBFadeToWhiteStep                fade_manager
     000455E7  _CGBFadeToBlackStep                fade_manager
     00045622  _ApplyPaletteChangeColor           fade_manager
     00045666  _fade_speeds                       fade_manager
     0004566D  _DMGFadeToWhiteStep                fade_manager
     00045690  _DMGFadeToBlackStep                fade_manager
     000456B5  _ApplyPaletteChangeDMG             fade_manager
     0004572C  _fade_init                         fade_manager
     00045754  _fade_in                           fade_manager
     00045785  _fade_out                          fade_manager
     000457B7  _fade_update                       fade_manager
     00045811  _fade_applypalettechange           fade_manager
     0004582B  _fade_setspeed                     fade_manager
     0004583B  _fade_in_modal                     fade_manager
     0004585B  _fade_out_modal                    fade_manager
     000458E7  _save_sram_banks                   
     00045972  _erase_flash                       
     0004598D  _restore_sram_bank                 flasher
     000459BC  _restore_sram                      flasher
     000459D2  _save_sram                         flasher
     000459E5  _input_init                        input
     00045A06  _data_init                         load_save
     00045A47  _signature                         load_save
     00045A4B  _save_points                       load_save
     00045A8F  _data_slot_address                 load_save
     00045AE7  _data_save                         load_save
     00045B9E  _data_load                         load_save
     00045C71  _data_clear                        load_save
     00045C96  _data_peek                         load_save
     00045D34  _sound_init                        music_manager
     00045D56  _music_init                        music_manager
     00045D92  _music_events_poll                 music_manager
     00045DBC  _music_stop                        music_manager
ASxxxx Linker V03.00 + NoICE + sdld,  page 60.
Hexadecimal  [32-Bits]

Area                                    Addr        Size        Decimal Bytes (Attributes)
--------------------------------        ----        ----        ------- ----- ------------
_CODE_4                             00044000    0000293B =       10555. bytes (REL,CON)

      Value  Global                              Global Defined In Module
      -----  --------------------------------   ------------------------
     00045DD2  _wave_play                         music_manager
     00045E10  _FX_REG_SIZES                      music_manager
     00045E15  _FX_ADDR_LO                        music_manager
     00045E1A  _channel_masks                     music_manager
     00045E1F  _sound_play                        music_manager
     00045EA0  _palette_init                      palette
     00045ED9  _CGBZeroPalette                    palette
     00045EEE  _projectiles_init                  projectiles
     00045F2E  _projectile_launch                 projectiles
     00046313  _set_sample                        sample_player
     0004634C  _set_sgb_border                    sgb_border
     00046590  _SIO_init                          sio
     000465B9  _trigger_reset                     trigger
     000465C9  _trigger_interact                  trigger
     00046609  _trigger_activate_at               trigger
     00046654  _trigger_activate_at_intersectio   trigger
     00046796  _trigger_at_intersection           trigger
     000468AB  _trigger_at_tile                   trigger

ASxxxx Linker V03.00 + NoICE + sdld,  page 61.
Hexadecimal  [32-Bits]

Area                                    Addr        Size        Decimal Bytes (Attributes)
--------------------------------        ----        ----        ------- ----- ------------
_CRASH_HEADER0                      00000000    00000005 =           5. bytes (ABS,CON)

      Value  Global                              Global Defined In Module
      -----  --------------------------------   ------------------------
ASxxxx Linker V03.00 + NoICE + sdld,  page 62.
Hexadecimal  [32-Bits]

Area                                    Addr        Size        Decimal Bytes (Attributes)
--------------------------------        ----        ----        ------- ----- ------------
_CRASH_HEADER1                      00000000    00000004 =           4. bytes (ABS,CON)

      Value  Global                              Global Defined In Module
      -----  --------------------------------   ------------------------
ASxxxx Linker V03.00 + NoICE + sdld,  page 63.
Hexadecimal  [32-Bits]

Area                                    Addr        Size        Decimal Bytes (Attributes)
--------------------------------        ----        ----        ------- ----- ------------
_CRASH_SCRATCH2                     00000000    000001CB =         459. bytes (ABS,CON)

      Value  Global                              Global Defined In Module
      -----  --------------------------------   ------------------------
ASxxxx Linker V03.00 + NoICE + sdld,  page 64.
Hexadecimal  [32-Bits]

Area                                    Addr        Size        Decimal Bytes (Attributes)
--------------------------------        ----        ----        ------- ----- ------------
_HEADER_SIO0                        00000000    00000004 =           4. bytes (ABS,CON)

      Value  Global                              Global Defined In Module
      -----  --------------------------------   ------------------------
ASxxxx Linker V03.00 + NoICE + sdld,  page 65.
Hexadecimal  [32-Bits]

Area                                    Addr        Size        Decimal Bytes (Attributes)
--------------------------------        ----        ----        ------- ----- ------------
_HEADER_TIMER0                      00000000    00000004 =           4. bytes (ABS,CON)

      Value  Global                              Global Defined In Module
      -----  --------------------------------   ------------------------
ASxxxx Linker V03.00 + NoICE + sdld,  page 66.
Hexadecimal  [32-Bits]

Area                                    Addr        Size        Decimal Bytes (Attributes)
--------------------------------        ----        ----        ------- ----- ------------
_CODE_2                             00024000    00003951 =       14673. bytes (REL,CON)

      Value  Global                              Global Defined In Module
      -----  --------------------------------   ------------------------
     00024000  _scroll_rect                       
     0002403D  _vm_actor_move_to                  vm_actor
     000248B8  _vm_actor_activate                 vm_actor
     000248F6  _vm_actor_deactivate               vm_actor
     00024934  _vm_actor_terminate_update         vm_actor
     0002497B  _vm_actor_set_dir                  vm_actor
     000249C4  _vm_actor_set_anim                 vm_actor
     00024A51  _vm_actor_set_pos                  vm_actor
     00024ACB  _vm_actor_get_pos                  vm_actor
     00024B3A  _vm_actor_get_dir                  vm_actor
     00024BB4  _vm_actor_get_angle                vm_actor
     00024C35  _vm_actor_emote                    vm_actor
     00024CF9  _vm_actor_set_bounds               vm_actor
     00024D57  _vm_actor_set_spritesheet          vm_actor
     00024E26  _vm_actor_replace_tile             vm_actor
     00024E90  _vm_actor_set_hidden               vm_actor
     00024ED5  _vm_actor_set_anim_tick            vm_actor
     00024F13  _vm_actor_set_move_speed           vm_actor
     00024F51  _vm_actor_set_coll_enabled         vm_actor
     00024F96  _vm_actor_set_anim_frame           vm_actor
     00024FD9  _vm_actor_get_anim_frame           vm_actor
     00025021  _vm_actor_set_anim_set             vm_actor
     000250AE  _vm_actor_set_spritesheet_by_ref   vm_actor
     000251BC  _vm_camera_move_to                 vm_camera
     0002530F  _vm_camera_set_pos                 vm_camera
     00025356  _camera_shake_frames               vm_camera
     0002544E  _vm_show_sprites                   vm_gameboy
     0002545A  _vm_hide_sprites                   vm_gameboy
     00025466  _vm_input_wait                     vm_gameboy
     0002548E  _vm_context_prepare                vm_gameboy
     000254B9  _vm_input_attach                   vm_gameboy
     000254CF  _vm_input_detach                   vm_gameboy
     000254E3  _vm_input_get                      vm_gameboy
     00025517  _vm_fade_in                        vm_gameboy
     0002552D  _vm_fade_out                       vm_gameboy
     00025543  _vm_timer_prepare                  vm_gameboy
     0002556E  _vm_timer_set                      vm_gameboy
     00025589  _vm_timer_stop                     vm_gameboy
     0002559D  _vm_timer_reset                    vm_gameboy
     000255B4  _vm_get_tile_xy                    vm_gameboy
     0002569D  _vm_replace_tile                   vm_gameboy
     00025746  _vm_poll                           vm_gameboy
     0002581F  _vm_set_sprite_mode                vm_gameboy
     00025833  _vm_replace_tile_xy                vm_gameboy
     00025955  _vm_rumble                         vm_gameboy
     0002596D  _vm_save_clear                     vm_load_save
     0002597C  _vm_save_peek                      vm_load_save
     000259FC  _vm_sin_scale                      vm_math
     00025A9E  _vm_cos_scale                      vm_math
     00025B42  _vm_music_play                     vm_music
ASxxxx Linker V03.00 + NoICE + sdld,  page 67.
Hexadecimal  [32-Bits]

Area                                    Addr        Size        Decimal Bytes (Attributes)
--------------------------------        ----        ----        ------- ----- ------------
_CODE_2                             00024000    00003951 =       14673. bytes (REL,CON)

      Value  Global                              Global Defined In Module
      -----  --------------------------------   ------------------------
     00025B56  _vm_music_stop                     vm_music
     00025B5E  _vm_music_mute                     vm_music
     00025B6E  _vm_music_routine                  vm_music
     00025B95  _vm_music_setpos                   vm_music
     00025B96  _vm_sound_mastervol                vm_music
     00025B9C  _vm_sound_play                     vm_music
     00025BE4  _vm_wave_play                      vm_music
     00025C01  _vm_load_palette                   vm_palette
     00025DB5  _vm_projectile_launch              vm_projectiles
     00025DF0  _vm_rtc_latch                      vm_rtc
     00025DF8  _vm_rtc_get                        vm_rtc
     00025E41  _vm_rtc_set                        vm_rtc
     00025E8A  _vm_rtc_start                      vm_rtc
     00025EA5  _vm_scene_push                     vm_scene
     00025F2A  _vm_scene_pop                      vm_scene
     00025F38  _vm_scene_pop_all                  vm_scene
     00025F43  _vm_scene_stack_reset              vm_scene
     00025F4C  _vm_sio_set_mode                   vm_sio
     00025F5F  _vm_sio_exchange                   vm_sio
     000262B8  _itoa_fmt                          vm_ui_a
     000262F1  .utoa_fmt                          vm_ui_a
     0002639B  _vm_display_text                   vm_ui
     000263B1  _vm_switch_text_layer              vm_ui
     000263CB  _vm_overlay_setpos                 vm_ui
     000263E5  _vm_overlay_hide                   vm_ui
     000263FA  _vm_overlay_wait                   vm_ui
     0002649D  _vm_overlay_move_to                vm_ui
     000264E1  _vm_overlay_set_scroll             vm_ui
     0002651E  _vm_overlay_clear                  vm_ui
     000265F4  _vm_overlay_show                   vm_ui
     00026642  _vm_choice                         vm_ui
     000266E1  _vm_load_frame                     vm_ui
     000266F4  _vm_load_cursor                    vm_ui
     00026707  _vm_set_font                       vm_ui
     00026734  _vm_set_print_dir                  vm_ui
     0002673D  _vm_overlay_scroll                 vm_ui
     00026799  _vm_overlay_set_submap             vm_ui
     00026809  _vm_call_rel                       vm
     0002685B  _vm_call                           vm
     0002689D  _vm_ret                            vm
     000268FC  _vm_call_far                       vm
     00026979  _vm_ret_far                        vm
     000269E8  _vm_push                           vm
     00026A12  _vm_pop                            vm
     00026A4D  _vm_loop_rel                       vm
     00026AFB  _vm_loop                           vm
     00026B88  _vm_jump_rel                       vm
     00026BAC  _vm_jump                           vm
     00026BB8  _vm_systime                        vm
     00026BE4  _wait_frames                       vm
     00026C5B  _vm_invoke                         vm
ASxxxx Linker V03.00 + NoICE + sdld,  page 68.
Hexadecimal  [32-Bits]

Area                                    Addr        Size        Decimal Bytes (Attributes)
--------------------------------        ----        ----        ------- ----- ------------
_CODE_2                             00024000    00003951 =       14673. bytes (REL,CON)

      Value  Global                              Global Defined In Module
      -----  --------------------------------   ------------------------
     00026D87  _vm_join                           vm
     00026DE0  _vm_terminate                      vm
     00026E0D  _vm_if                             vm
     00026F51  _vm_if_const                       vm
     00027065  _vm_push_value                     vm
     000270B7  _vm_push_value_ind                 vm
     0002712C  _vm_push_reference                 vm
     00027183  _vm_reserve                        vm
     000271B0  _vm_set                            vm
     00027211  _vm_set_const                      vm
     0002723D  _vm_get_tlocal                     vm
     000272CA  _vm_test_terminate                 vm
     000272D5  _vm_idle                           vm
     000272E1  _vm_get_uint8                      vm
     00027314  _vm_get_int8                       vm
     00027348  _vm_get_int16                      vm
     0002738A  _vm_set_uint8                      vm
     000273B6  _vm_set_int8                       vm
     000273E2  _vm_set_int16                      vm
     00027421  _vm_set_const_int8                 vm
     0002742A  _vm_set_const_int16                vm
     00027436  _vm_randomize                      vm
     00027441  _vm_rand                           vm
     000274C6  _vm_lock                           vm
     000274D5  _vm_unlock                         vm
     000274E8  _vm_raise                          vm
     0002752A  _vm_set_indirect                   vm
     000275A5  _vm_get_indirect                   vm
     00027620  _vm_poll_loaded                    vm
     0002764F  _vm_memset                         vm
     00027694  _vm_memcpy                         vm
     00027714  _script_runner_init                vm
     000277D0  _script_execute                    vm
     000278EB  _script_terminate                  vm
ASxxxx Linker V03.00 + NoICE + sdld,  page 69.
Hexadecimal  [32-Bits]

Area                                    Addr        Size        Decimal Bytes (Attributes)
--------------------------------        ----        ----        ------- ----- ------------
_CODE_5                             00054000    00004000 =       16384. bytes (REL,CON)

      Value  Global                              Global Defined In Module
      -----  --------------------------------   ------------------------
     00054000  ___func_background_0               background_0
     00054000  _background_0                      background_0
     0005400E  ___func_scene_10_collisions        scene_10_collisions
     0005400E  _scene_10_collisions               scene_10_collisions
     00054F86  ___func_scene_12_collisions        scene_12_collisions
     00054F86  _scene_12_collisions               scene_12_collisions
     00055EFE  ___func_scene_14_collisions        scene_14_collisions
     00055EFE  _scene_14_collisions               scene_14_collisions
     00056E76  ___func_scene_16_collisions        scene_16_collisions
     00056E76  _scene_16_collisions               scene_16_collisions
     00057DEE  ___func_tileset_2                  tileset_2
     00057DEE  _tileset_2                         tileset_2
ASxxxx Linker V03.00 + NoICE + sdld,  page 70.
Hexadecimal  [32-Bits]

Area                                    Addr        Size        Decimal Bytes (Attributes)
--------------------------------        ----        ----        ------- ----- ------------
_CODE_21                            00154000    00003FFF =       16383. bytes (REL,CON)

      Value  Global                              Global Defined In Module
      -----  --------------------------------   ------------------------
     00154000  ___func_background_1               background_1
     00154000  _background_1                      background_1
     0015400E  ___func_background_10              background_10
     0015400E  _background_10                     background_10
     0015401C  ___func_background_11              background_11
     0015401C  _background_11                     background_11
     0015402A  ___func_background_12              background_12
     0015402A  _background_12                     background_12
     00154038  ___func_background_13              background_13
     00154038  _background_13                     background_13
     00154046  ___func_background_14              background_14
     00154046  _background_14                     background_14
     00154054  ___func_background_15              background_15
     00154054  _background_15                     background_15
     00154062  ___func_background_16              background_16
     00154062  _background_16                     background_16
     00154070  ___func_background_17              background_17
     00154070  _background_17                     background_17
     0015407E  ___func_background_18              background_18
     0015407E  _background_18                     background_18
     0015408C  ___func_background_19              background_19
     0015408C  _background_19                     background_19
     0015409A  ___func_background_2               background_2
     0015409A  _background_2                      background_2
     001540A8  ___func_background_20              background_20
     001540A8  _background_20                     background_20
     001540B6  ___func_background_21              background_21
     001540B6  _background_21                     background_21
     001540C4  ___func_background_22              background_22
     001540C4  _background_22                     background_22
     001540D2  ___func_background_23              background_23
     001540D2  _background_23                     background_23
     001540E0  ___func_background_24              background_24
     001540E0  _background_24                     background_24
     001540EE  ___func_background_25              background_25
     001540EE  _background_25                     background_25
     001540FC  ___func_background_26              background_26
     001540FC  _background_26                     background_26
     0015410A  ___func_background_27              background_27
     0015410A  _background_27                     background_27
     00154118  ___func_background_28              background_28
     00154118  _background_28                     background_28
     00154126  ___func_background_29              background_29
     00154126  _background_29                     background_29
     00154134  ___func_background_3               background_3
     00154134  _background_3                      background_3
     00154142  ___func_background_30              background_30
     00154142  _background_30                     background_30
     00154150  ___func_background_31              background_31
     00154150  _background_31                     background_31
ASxxxx Linker V03.00 + NoICE + sdld,  page 71.
Hexadecimal  [32-Bits]

Area                                    Addr        Size        Decimal Bytes (Attributes)
--------------------------------        ----        ----        ------- ----- ------------
_CODE_21                            00154000    00003FFF =       16383. bytes (REL,CON)

      Value  Global                              Global Defined In Module
      -----  --------------------------------   ------------------------
     0015415E  ___func_cursor_image               cursor_image
     0015415E  _cursor_image                      cursor_image
     0015416E  ___func_palette_0                  palette_0
     0015416E  _palette_0                         palette_0
     001541B1  ___func_palette_1                  palette_1
     001541B1  _palette_1                         palette_1
     001541F4  ___func_palette_10                 palette_10
     001541F4  _palette_10                        palette_10
     00154237  ___func_palette_11                 palette_11
     00154237  _palette_11                        palette_11
     0015427A  ___func_palette_12                 palette_12
     0015427A  _palette_12                        palette_12
     001542BD  ___func_palette_13                 palette_13
     001542BD  _palette_13                        palette_13
     00154300  ___func_palette_14                 palette_14
     00154300  _palette_14                        palette_14
     00154343  ___func_palette_15                 palette_15
     00154343  _palette_15                        palette_15
     00154386  ___func_palette_16                 palette_16
     00154386  _palette_16                        palette_16
     001543C9  ___func_palette_17                 palette_17
     001543C9  _palette_17                        palette_17
     0015440C  ___func_palette_18                 palette_18
     0015440C  _palette_18                        palette_18
     0015444F  ___func_palette_19                 palette_19
     0015444F  _palette_19                        palette_19
     00154492  ___func_palette_2                  palette_2
     00154492  _palette_2                         palette_2
     001544D5  ___func_palette_20                 palette_20
     001544D5  _palette_20                        palette_20
     00154518  ___func_palette_21                 palette_21
     00154518  _palette_21                        palette_21
     0015455B  ___func_palette_22                 palette_22
     0015455B  _palette_22                        palette_22
     0015459E  ___func_palette_23                 palette_23
     0015459E  _palette_23                        palette_23
     001545E1  ___func_palette_24                 palette_24
     001545E1  _palette_24                        palette_24
     00154624  ___func_palette_25                 palette_25
     00154624  _palette_25                        palette_25
     00154667  ___func_palette_26                 palette_26
     00154667  _palette_26                        palette_26
     001546AA  ___func_palette_27                 palette_27
     001546AA  _palette_27                        palette_27
     001546ED  ___func_palette_28                 palette_28
     001546ED  _palette_28                        palette_28
     00154730  ___func_palette_29                 palette_29
     00154730  _palette_29                        palette_29
     00154773  ___func_palette_3                  palette_3
     00154773  _palette_3                         palette_3
     001547B6  ___func_palette_30                 palette_30
ASxxxx Linker V03.00 + NoICE + sdld,  page 72.
Hexadecimal  [32-Bits]

Area                                    Addr        Size        Decimal Bytes (Attributes)
--------------------------------        ----        ----        ------- ----- ------------
_CODE_21                            00154000    00003FFF =       16383. bytes (REL,CON)

      Value  Global                              Global Defined In Module
      -----  --------------------------------   ------------------------
     001547B6  _palette_30                        palette_30
     001547F9  ___func_palette_31                 palette_31
     001547F9  _palette_31                        palette_31
     0015483C  ___func_palette_32                 palette_32
     0015483C  _palette_32                        palette_32
     0015487F  ___func_palette_33                 palette_33
     0015487F  _palette_33                        palette_33
     001548C2  ___func_palette_34                 palette_34
     001548C2  _palette_34                        palette_34
     00154905  ___func_palette_35                 palette_35
     00154905  _palette_35                        palette_35
     00154948  ___func_palette_36                 palette_36
     00154948  _palette_36                        palette_36
     0015498B  ___func_palette_37                 palette_37
     0015498B  _palette_37                        palette_37
     001549CE  ___func_palette_38                 palette_38
     001549CE  _palette_38                        palette_38
     00154A11  ___func_palette_39                 palette_39
     00154A11  _palette_39                        palette_39
     00154A54  ___func_palette_4                  palette_4
     00154A54  _palette_4                         palette_4
     00154A97  ___func_palette_5                  palette_5
     00154A97  _palette_5                         palette_5
     00154ADA  ___func_palette_6                  palette_6
     00154ADA  _palette_6                         palette_6
     00154B1D  ___func_palette_7                  palette_7
     00154B1D  _palette_7                         palette_7
     00154B60  ___func_palette_8                  palette_8
     00154B60  _palette_8                         palette_8
     00154BA3  ___func_palette_9                  palette_9
     00154BA3  _palette_9                         palette_9
     00154BE6  ___func_scene_0                    scene_0
     00154BE6  _scene_0                           scene_0
     00154C20  ___func_scene_1                    scene_1
     00154C20  _scene_1                           scene_1
     00154C5A  ___func_scene_10_projectiles       scene_10_projectiles
     00154C5A  _scene_10_projectiles              scene_10_projectiles
     00154C9F  ___func_scene_10                   scene_10
     00154C9F  _scene_10                          scene_10
     00154CD9  ___func_scene_11                   scene_11
     00154CD9  _scene_11                          scene_11
     00154D13  ___func_scene_12_sprites           scene_12_sprites
     00154D13  _scene_12_sprites                  scene_12_sprites
     00154D34  ___func_scene_12_triggers          scene_12_triggers
     00154D34  _scene_12_triggers                 scene_12_triggers
     00154D44  ___func_scene_12                   scene_12
     00154D44  _scene_12                          scene_12
     00154D7E  ___func_scene_13                   scene_13
     00154D7E  _scene_13                          scene_13
     00154DB8  ___func_scene_14_projectiles       scene_14_projectiles
     00154DB8  _scene_14_projectiles              scene_14_projectiles
ASxxxx Linker V03.00 + NoICE + sdld,  page 73.
Hexadecimal  [32-Bits]

Area                                    Addr        Size        Decimal Bytes (Attributes)
--------------------------------        ----        ----        ------- ----- ------------
_CODE_21                            00154000    00003FFF =       16383. bytes (REL,CON)

      Value  Global                              Global Defined In Module
      -----  --------------------------------   ------------------------
     00154DE6  ___func_scene_14_sprites           scene_14_sprites
     00154DE6  _scene_14_sprites                  scene_14_sprites
     00154E07  ___func_scene_14_triggers          scene_14_triggers
     00154E07  _scene_14_triggers                 scene_14_triggers
     00154E17  ___func_scene_14                   scene_14
     00154E17  _scene_14                          scene_14
     00154E51  ___func_scene_15                   scene_15
     00154E51  _scene_15                          scene_15
     00154E8B  ___func_scene_16_projectiles       scene_16_projectiles
     00154E8B  _scene_16_projectiles              scene_16_projectiles
     00154EB9  ___func_scene_16                   scene_16
     00154EB9  _scene_16                          scene_16
     00154EF3  ___func_scene_17                   scene_17
     00154EF3  _scene_17                          scene_17
     00154F2D  ___func_scene_18_projectiles       scene_18_projectiles
     00154F2D  _scene_18_projectiles              scene_18_projectiles
     00154F5B  ___func_scene_18_sprites           scene_18_sprites
     00154F5B  _scene_18_sprites                  scene_18_sprites
     00154F79  ___func_scene_18                   scene_18
     00154F79  _scene_18                          scene_18
     00154FB3  ___func_scene_19                   scene_19
     00154FB3  _scene_19                          scene_19
     00154FED  ___func_scene_2_actors             scene_2_actors
     00154FED  _scene_2_actors                    scene_2_actors
     0015501F  ___func_scene_2                    scene_2
     0015501F  _scene_2                           scene_2
     00155059  ___func_scene_20_projectiles       scene_20_projectiles
     00155059  _scene_20_projectiles              scene_20_projectiles
     0015509E  ___func_scene_20                   scene_20
     0015509E  _scene_20                          scene_20
     001550D8  ___func_scene_21                   scene_21
     001550D8  _scene_21                          scene_21
     00155112  ___func_scene_22_projectiles       scene_22_projectiles
     00155112  _scene_22_projectiles              scene_22_projectiles
     00155157  ___func_scene_22_sprites           scene_22_sprites
     00155157  _scene_22_sprites                  scene_22_sprites
     0015517B  ___func_scene_22_triggers          scene_22_triggers
     0015517B  _scene_22_triggers                 scene_22_triggers
     0015518B  ___func_scene_22                   scene_22
     0015518B  _scene_22                          scene_22
     001551C5  ___func_scene_23                   scene_23
     001551C5  _scene_23                          scene_23
     001551FF  ___func_scene_24_projectiles       scene_24_projectiles
     001551FF  _scene_24_projectiles              scene_24_projectiles
     00155216  ___func_scene_24_sprites           scene_24_sprites
     00155216  _scene_24_sprites                  scene_24_sprites
     0015521F  ___func_scene_24                   scene_24
     0015521F  _scene_24                          scene_24
     00155259  ___func_scene_25                   scene_25
     00155259  _scene_25                          scene_25
     00155293  ___func_scene_26_projectiles       scene_26_projectiles
ASxxxx Linker V03.00 + NoICE + sdld,  page 74.
Hexadecimal  [32-Bits]

Area                                    Addr        Size        Decimal Bytes (Attributes)
--------------------------------        ----        ----        ------- ----- ------------
_CODE_21                            00154000    00003FFF =       16383. bytes (REL,CON)

      Value  Global                              Global Defined In Module
      -----  --------------------------------   ------------------------
     00155293  _scene_26_projectiles              scene_26_projectiles
     001552EF  ___func_scene_26_sprites           scene_26_sprites
     001552EF  _scene_26_sprites                  scene_26_sprites
     00155313  ___func_scene_26_triggers          scene_26_triggers
     00155313  _scene_26_triggers                 scene_26_triggers
     0015532B  ___func_scene_26                   scene_26
     0015532B  _scene_26                          scene_26
     00155365  ___func_scene_27                   scene_27
     00155365  _scene_27                          scene_27
     0015539F  ___func_scene_28_projectiles       scene_28_projectiles
     0015539F  _scene_28_projectiles              scene_28_projectiles
     001553FB  ___func_scene_28_sprites           scene_28_sprites
     001553FB  _scene_28_sprites                  scene_28_sprites
     00155413  ___func_scene_28                   scene_28
     00155413  _scene_28                          scene_28
     0015544D  ___func_scene_29                   scene_29
     0015544D  _scene_29                          scene_29
     00155487  ___func_scene_3_actors             scene_3_actors
     00155487  _scene_3_actors                    scene_3_actors
     001554B9  ___func_scene_3                    scene_3
     001554B9  _scene_3                           scene_3
     001554F3  ___func_scene_30_actors            scene_30_actors
     001554F3  _scene_30_actors                   scene_30_actors
     00155557  ___func_scene_30_projectiles       scene_30_projectiles
     00155557  _scene_30_projectiles              scene_30_projectiles
     0015556E  ___func_scene_30                   scene_30
     0015556E  _scene_30                          scene_30
     001555A8  ___func_scene_31                   scene_31
     001555A8  _scene_31                          scene_31
     001555E2  ___func_scene_32_actors            scene_32_actors
     001555E2  _scene_32_actors                   scene_32_actors
     00155646  ___func_scene_32_projectiles       scene_32_projectiles
     00155646  _scene_32_projectiles              scene_32_projectiles
     0015565D  ___func_scene_32                   scene_32
     0015565D  _scene_32                          scene_32
     00155697  ___func_scene_33                   scene_33
     00155697  _scene_33                          scene_33
     001556D1  ___func_scene_34_actors            scene_34_actors
     001556D1  _scene_34_actors                   scene_34_actors
     00155735  ___func_scene_34_projectiles       scene_34_projectiles
     00155735  _scene_34_projectiles              scene_34_projectiles
     0015574C  ___func_scene_34                   scene_34
     0015574C  _scene_34                          scene_34
     00155786  ___func_scene_35                   scene_35
     00155786  _scene_35                          scene_35
     001557C0  ___func_scene_36                   scene_36
     001557C0  _scene_36                          scene_36
     001557FA  ___func_scene_37                   scene_37
     001557FA  _scene_37                          scene_37
     00155834  ___func_scene_38                   scene_38
     00155834  _scene_38                          scene_38
ASxxxx Linker V03.00 + NoICE + sdld,  page 75.
Hexadecimal  [32-Bits]

Area                                    Addr        Size        Decimal Bytes (Attributes)
--------------------------------        ----        ----        ------- ----- ------------
_CODE_21                            00154000    00003FFF =       16383. bytes (REL,CON)

      Value  Global                              Global Defined In Module
      -----  --------------------------------   ------------------------
     0015586E  ___func_scene_39_actors            scene_39_actors
     0015586E  _scene_39_actors                   scene_39_actors
     001558A0  ___func_scene_39                   scene_39
     001558A0  _scene_39                          scene_39
     001558DA  ___func_scene_4                    scene_4
     001558DA  _scene_4                           scene_4
     00155914  ___func_scene_40_actors            scene_40_actors
     00155914  _scene_40_actors                   scene_40_actors
     00155946  ___func_scene_40                   scene_40
     00155946  _scene_40                          scene_40
     00155980  ___func_scene_5                    scene_5
     00155980  _scene_5                           scene_5
     001559BA  ___func_scene_6_actors             scene_6_actors
     001559BA  _scene_6_actors                    scene_6_actors
     001559EC  ___func_scene_6                    scene_6
     001559EC  _scene_6                           scene_6
     00155A26  ___func_scene_7                    scene_7
     00155A26  _scene_7                           scene_7
     00155A60  ___func_scene_8_projectiles        scene_8_projectiles
     00155A60  _scene_8_projectiles               scene_8_projectiles
     00155A77  ___func_scene_8_sprites            scene_8_sprites
     00155A77  _scene_8_sprites                   scene_8_sprites
     00155A8F  ___func_scene_8                    scene_8
     00155A8F  _scene_8                           scene_8
     00155AC9  ___func_scene_9                    scene_9
     00155AC9  _scene_9                           scene_9
     00155B03  _script_input_1                    script_input_1
     00155B32  _script_s1_init                    script_s1_init
     00155B5C  _script_s10a10_update              script_s10a10_update
     00155BBC  _script_s10a12_interact            script_s10a12_interact
     00155BD2  _script_s10a14_interact            script_s10a14_interact
     00155BE8  _script_s10a15_update              script_s10a15_update
     00155C30  _script_s10a16_update              script_s10a16_update
     00155C90  _script_s10a17_update              script_s10a17_update
     00155CF0  _script_s10a18_update              script_s10a18_update
     00155D50  _script_s10a19_interact            script_s10a19_interact
     00155D66  _script_s10a5_update               script_s10a5_update
     00155DAE  _script_s10a6_interact             script_s10a6_interact
     00155DC4  _script_s10a7_update               script_s10a7_update
     00155E0C  _script_s10a8_update               script_s10a8_update
     00155E54  _script_s10a9_update               script_s10a9_update
     00155E9C  _script_s12a11_update              script_s12a11_update
     00155EE4  _script_s12a12_update              script_s12a12_update
     00155F44  _script_s12a13_update              script_s12a13_update
     00155F8C  _script_s12a14_update              script_s12a14_update
     00155FD4  _script_s12a16_update              script_s12a16_update
     0015601C  _script_s12a18_update              script_s12a18_update
     00156064  _script_s12a19_interact            script_s12a19_interact
     00156097  _script_s12a4_update               script_s12a4_update
     001560DF  _script_s12a6_interact             script_s12a6_interact
     001560F5  _script_s12a7_update               script_s12a7_update
ASxxxx Linker V03.00 + NoICE + sdld,  page 76.
Hexadecimal  [32-Bits]

Area                                    Addr        Size        Decimal Bytes (Attributes)
--------------------------------        ----        ----        ------- ----- ------------
_CODE_21                            00154000    00003FFF =       16383. bytes (REL,CON)

      Value  Global                              Global Defined In Module
      -----  --------------------------------   ------------------------
     0015613D  _script_s12a8_update               script_s12a8_update
     00156185  _script_s12a9_update               script_s12a9_update
     001561CD  _script_s12t1_interact             script_s12t1_interact
     001561ED  _script_s14a10_update              script_s14a10_update
     00156235  _script_s14a12_update              script_s14a12_update
     0015627D  _script_s14a13_update              script_s14a13_update
     001562C5  _script_s14a15_interact            script_s14a15_interact
     001562DB  _script_s14a16_update              script_s14a16_update
     00156323  _script_s14a17_update              script_s14a17_update
     0015636B  _script_s14a18_interact            script_s14a18_interact
     00156381  _script_s14a5_interact             script_s14a5_interact
     00156397  _script_s14a6_update               script_s14a6_update
     001563DF  _script_s14a7_update               script_s14a7_update
     00156427  _script_s14a8_interact             script_s14a8_interact
     0015643D  _script_s14a9_update               script_s14a9_update
     00156485  _script_s14t1_interact             script_s14t1_interact
     001564A5  _script_s16a10_update              script_s16a10_update
     001564ED  _script_s16a11_interact            script_s16a11_interact
     00156503  _script_s16a12_interact            script_s16a12_interact
     00156519  _script_s16a13_update              script_s16a13_update
     00156561  _script_s16a15_interact            script_s16a15_interact
     00156577  _script_s16a16_update              script_s16a16_update
     001565BF  _script_s16a18_update              script_s16a18_update
     00156607  _script_s16a4_update               script_s16a4_update
     0015664F  _script_s16a5_update               script_s16a5_update
     00156697  _script_s16a6_update               script_s16a6_update
     001566DF  _script_s16a9_interact             script_s16a9_interact
     001566F5  _script_s18a10_interact            script_s18a10_interact
     0015670B  _script_s18a10_update              script_s18a10_update
     00156753  _script_s18a11_update              script_s18a11_update
     0015679B  _script_s18a13_update              script_s18a13_update
     001567E3  _script_s18a14_update              script_s18a14_update
     0015682B  _script_s18a15_update              script_s18a15_update
     00156873  _script_s18a17_interact            script_s18a17_interact
     00156889  _script_s18a17_update              script_s18a17_update
     001568D1  _script_s18a18_update              script_s18a18_update
     00156919  _script_s18a4_update               script_s18a4_update
     00156961  _script_s18a5_update               script_s18a5_update
     001569A9  _script_s18a6_interact             script_s18a6_interact
     001569BF  _script_s18a6_update               script_s18a6_update
     00156A07  _script_s18a8_interact             script_s18a8_interact
     00156A1D  _script_s18a8_update               script_s18a8_update
     00156A65  _script_s18a9_interact             script_s18a9_interact
     00156A7B  _script_s18a9_update               script_s18a9_update
     00156AC3  _script_s2_init                    script_s2_init
     00156AF5  _script_s22a10_update              script_s22a10_update
     00156B55  _script_s22a12_interact            script_s22a12_interact
     00156B88  _script_s22a13_update              script_s22a13_update
     00156BD0  _script_s22a15_update              script_s22a15_update
     00156C30  _script_s22a16_update              script_s22a16_update
     00156C90  _script_s22a4_interact             script_s22a4_interact
ASxxxx Linker V03.00 + NoICE + sdld,  page 77.
Hexadecimal  [32-Bits]

Area                                    Addr        Size        Decimal Bytes (Attributes)
--------------------------------        ----        ----        ------- ----- ------------
_CODE_21                            00154000    00003FFF =       16383. bytes (REL,CON)

      Value  Global                              Global Defined In Module
      -----  --------------------------------   ------------------------
     00156CA6  _script_s22a6_update               script_s22a6_update
     00156D06  _script_s22a7_interact             script_s22a7_interact
     00156D1C  _script_s22a9_update               script_s22a9_update
     00156D64  _script_s22t1_interact             script_s22t1_interact
     00156DA8  _script_s26a10_interact            script_s26a10_interact
     00156DBE  _script_s26a12_update              script_s26a12_update
     00156E06  _script_s26a13_update              script_s26a13_update
     00156E4E  _script_s26a16_update              script_s26a16_update
     00156E96  _script_s26a17_update              script_s26a17_update
     00156EDE  _script_s26a19_update              script_s26a19_update
     00156F2F  _script_s26a4_update               script_s26a4_update
     00156F77  _script_s26a5_interact             script_s26a5_interact
     00156F8D  _script_s26a6_update               script_s26a6_update
     00156FD5  _script_s26a7_interact             script_s26a7_interact
     00156FEB  _script_s26a8_update               script_s26a8_update
     00157033  _script_s26a9_update               script_s26a9_update
     0015707B  _script_s26t1_interact             script_s26t1_interact
     001570BF  _script_s26t2_interact             script_s26t2_interact
     00157103  _script_s2a0_update                script_s2a0_update
     0015713B  _script_s3_init                    script_s3_init
     00157165  _script_s38_init                   script_s38_init
     0015718F  _script_s4_init                    script_s4_init
     001571C1  _script_s5_init                    script_s5_init
     001571F3  _script_s6_init                    script_s6_init
     0015721D  _script_s8a11_update               script_s8a11_update
     00157265  _script_s8a12_update               script_s8a12_update
     001572AD  _script_s8a13_update               script_s8a13_update
     001572F5  _script_s8a14_update               script_s8a14_update
     0015733D  _script_s8a15_update               script_s8a15_update
     00157385  _script_s8a16_update               script_s8a16_update
     001573CD  _script_s8a17_update               script_s8a17_update
     00157415  _script_s8a3_update                script_s8a3_update
     0015745D  _script_s8a5_update                script_s8a5_update
     001574A5  _script_s8a6_update                script_s8a6_update
     001574ED  _script_s8a7_update                script_s8a7_update
     00157535  _script_s8a8_update                script_s8a8_update
     0015757D  _script_s8a9_update                script_s8a9_update
     001575C5  ___func_spritesheet_0              spritesheet_0
     001575C5  _spritesheet_0_metasprite_0        spritesheet_0
     001575D1  _spritesheet_0_metasprite_1        spritesheet_0
     001575DD  _spritesheet_0_metasprites         spritesheet_0
     001575E1  _spritesheet_0_animations          spritesheet_0
     001575F1  _spritesheet_0_animations_lookup   spritesheet_0
     001575F3  _spritesheet_0                     spritesheet_0
     00157606  ___func_spritesheet_1              spritesheet_1
     00157606  _spritesheet_1_metasprite_0        spritesheet_1
     0015760E  _spritesheet_1_metasprites         spritesheet_1
     00157610  _spritesheet_1_animations          spritesheet_1
     00157620  _spritesheet_1_animations_lookup   spritesheet_1
     00157622  _spritesheet_1                     spritesheet_1
     00157635  ___func_spritesheet_10             spritesheet_10
ASxxxx Linker V03.00 + NoICE + sdld,  page 78.
Hexadecimal  [32-Bits]

Area                                    Addr        Size        Decimal Bytes (Attributes)
--------------------------------        ----        ----        ------- ----- ------------
_CODE_21                            00154000    00003FFF =       16383. bytes (REL,CON)

      Value  Global                              Global Defined In Module
      -----  --------------------------------   ------------------------
     00157635  _spritesheet_10_metasprite_0       spritesheet_10
     0015763D  _spritesheet_10_metasprites        spritesheet_10
     0015763F  _spritesheet_10_animations         spritesheet_10
     0015764F  _spritesheet_10_animations_looku   spritesheet_10
     00157651  _spritesheet_10                    spritesheet_10
     00157664  ___func_spritesheet_11             spritesheet_11
     00157664  _spritesheet_11_metasprite_0       spritesheet_11
     00157670  _spritesheet_11_metasprites        spritesheet_11
     00157672  _spritesheet_11_animations         spritesheet_11
     00157682  _spritesheet_11_animations_looku   spritesheet_11
     00157684  _spritesheet_11                    spritesheet_11
     00157697  ___func_spritesheet_13             spritesheet_13
     00157697  _spritesheet_13_metasprite_0       spritesheet_13
     0015769F  _spritesheet_13_metasprite_1       spritesheet_13
     001576A7  _spritesheet_13_metasprites        spritesheet_13
     001576AB  _spritesheet_13_animations         spritesheet_13
     001576BB  _spritesheet_13_animations_looku   spritesheet_13
     001576BD  _spritesheet_13                    spritesheet_13
     001576D0  ___func_spritesheet_14             spritesheet_14
     001576D0  _spritesheet_14_metasprite_0       spritesheet_14
     001576E8  _spritesheet_14_metasprite_1       spritesheet_14
     001576EC  _spritesheet_14_metasprites        spritesheet_14
     001576F0  _spritesheet_14_animations         spritesheet_14
     00157700  _spritesheet_14_animations_looku   spritesheet_14
     00157702  _spritesheet_14                    spritesheet_14
     00157715  ___func_spritesheet_16             spritesheet_16
     00157715  _spritesheet_16_metasprite_0       spritesheet_16
     00157721  _spritesheet_16_metasprite_1       spritesheet_16
     0015772D  _spritesheet_16_metasprites        spritesheet_16
     00157731  _spritesheet_16_animations         spritesheet_16
     00157741  _spritesheet_16_animations_looku   spritesheet_16
     00157743  _spritesheet_16                    spritesheet_16
     00157756  ___func_spritesheet_18             spritesheet_18
     00157756  _spritesheet_18_metasprite_0       spritesheet_18
     00157762  _spritesheet_18_metasprite_1       spritesheet_18
     0015776E  _spritesheet_18_metasprites        spritesheet_18
     00157772  _spritesheet_18_animations         spritesheet_18
     00157782  _spritesheet_18_animations_looku   spritesheet_18
     00157784  _spritesheet_18                    spritesheet_18
     00157797  ___func_spritesheet_2              spritesheet_2
     00157797  _spritesheet_2_metasprite_0        spritesheet_2
     001577A3  _spritesheet_2_metasprite_1        spritesheet_2
     001577AF  _spritesheet_2_metasprites         spritesheet_2
     001577B3  _spritesheet_2_animations          spritesheet_2
     001577C3  _spritesheet_2_animations_lookup   spritesheet_2
     001577C5  _spritesheet_2                     spritesheet_2
     001577D8  ___func_spritesheet_21             spritesheet_21
     001577D8  _spritesheet_21_metasprite_0       spritesheet_21
     001577F0  _spritesheet_21_metasprites        spritesheet_21
     001577F2  _spritesheet_21_animations         spritesheet_21
     00157802  _spritesheet_21_animations_looku   spritesheet_21
ASxxxx Linker V03.00 + NoICE + sdld,  page 79.
Hexadecimal  [32-Bits]

Area                                    Addr        Size        Decimal Bytes (Attributes)
--------------------------------        ----        ----        ------- ----- ------------
_CODE_21                            00154000    00003FFF =       16383. bytes (REL,CON)

      Value  Global                              Global Defined In Module
      -----  --------------------------------   ------------------------
     00157804  _spritesheet_21                    spritesheet_21
     00157817  ___func_spritesheet_23             spritesheet_23
     00157817  _spritesheet_23_metasprite_0       spritesheet_23
     00157823  _spritesheet_23_metasprite_1       spritesheet_23
     0015782F  _spritesheet_23_metasprites        spritesheet_23
     00157833  _spritesheet_23_animations         spritesheet_23
     00157843  _spritesheet_23_animations_looku   spritesheet_23
     00157845  _spritesheet_23                    spritesheet_23
     00157858  ___func_spritesheet_25             spritesheet_25
     00157858  _spritesheet_25_metasprite_0       spritesheet_25
     00157870  _spritesheet_25_metasprites        spritesheet_25
     00157872  _spritesheet_25_animations         spritesheet_25
     00157882  _spritesheet_25_animations_looku   spritesheet_25
     00157884  _spritesheet_25                    spritesheet_25
     00157897  ___func_spritesheet_29             spritesheet_29
     00157897  _spritesheet_29_metasprite_0       spritesheet_29
     001578A3  _spritesheet_29_metasprite_1       spritesheet_29
     001578AF  _spritesheet_29_metasprites        spritesheet_29
     001578B3  _spritesheet_29_animations         spritesheet_29
     001578C3  _spritesheet_29_animations_looku   spritesheet_29
     001578C5  _spritesheet_29                    spritesheet_29
     001578D8  ___func_spritesheet_3              spritesheet_3
     001578D8  _spritesheet_3_metasprite_0        spritesheet_3
     001578E0  _spritesheet_3_metasprites         spritesheet_3
     001578E2  _spritesheet_3_animations          spritesheet_3
     001578F2  _spritesheet_3_animations_lookup   spritesheet_3
     001578F4  _spritesheet_3                     spritesheet_3
     00157907  ___func_spritesheet_30             spritesheet_30
     00157907  _spritesheet_30_metasprite_0       spritesheet_30
     0015791F  _spritesheet_30_metasprites        spritesheet_30
     00157921  _spritesheet_30_animations         spritesheet_30
     00157931  _spritesheet_30_animations_looku   spritesheet_30
     00157933  _spritesheet_30                    spritesheet_30
     00157946  ___func_spritesheet_32             spritesheet_32
     00157946  _spritesheet_32_metasprite_0       spritesheet_32
     00157952  _spritesheet_32_metasprite_1       spritesheet_32
     0015795E  _spritesheet_32_metasprites        spritesheet_32
     00157962  _spritesheet_32_animations         spritesheet_32
     00157972  _spritesheet_32_animations_looku   spritesheet_32
     00157974  _spritesheet_32                    spritesheet_32
     00157987  ___func_spritesheet_33             spritesheet_33
     00157987  _spritesheet_33_metasprite_0       spritesheet_33
     0015799F  _spritesheet_33_metasprites        spritesheet_33
     001579A1  _spritesheet_33_animations         spritesheet_33
     001579B1  _spritesheet_33_animations_looku   spritesheet_33
     001579B3  _spritesheet_33                    spritesheet_33
     001579C6  ___func_spritesheet_35             spritesheet_35
     001579C6  _spritesheet_35_metasprite_0       spritesheet_35
     001579DE  _spritesheet_35_metasprites        spritesheet_35
     001579E0  _spritesheet_35_animations         spritesheet_35
     001579F0  _spritesheet_35_animations_looku   spritesheet_35
ASxxxx Linker V03.00 + NoICE + sdld,  page 80.
Hexadecimal  [32-Bits]

Area                                    Addr        Size        Decimal Bytes (Attributes)
--------------------------------        ----        ----        ------- ----- ------------
_CODE_21                            00154000    00003FFF =       16383. bytes (REL,CON)

      Value  Global                              Global Defined In Module
      -----  --------------------------------   ------------------------
     001579F2  _spritesheet_35                    spritesheet_35
     00157A05  ___func_spritesheet_36             spritesheet_36
     00157A05  _spritesheet_36_metasprite_0       spritesheet_36
     00157A09  _spritesheet_36_metasprite_1       spritesheet_36
     00157A15  _spritesheet_36_metasprite_2       spritesheet_36
     00157A21  _spritesheet_36_metasprite_3       spritesheet_36
     00157A2D  _spritesheet_36_metasprite_4       spritesheet_36
     00157A39  _spritesheet_36_metasprites        spritesheet_36
     00157A43  _spritesheet_36_animations         spritesheet_36
     00157A53  _spritesheet_36_animations_looku   spritesheet_36
     00157A55  _spritesheet_36                    spritesheet_36
     00157A68  ___func_spritesheet_37             spritesheet_37
     00157A68  _spritesheet_37_metasprite_0       spritesheet_37
     00157A74  _spritesheet_37_metasprite_1       spritesheet_37
     00157A80  _spritesheet_37_metasprites        spritesheet_37
     00157A84  _spritesheet_37_animations         spritesheet_37
     00157A94  _spritesheet_37_animations_looku   spritesheet_37
     00157A96  _spritesheet_37                    spritesheet_37
     00157AA9  ___func_spritesheet_38             spritesheet_38
     00157AA9  _spritesheet_38_metasprite_0       spritesheet_38
     00157ABD  _spritesheet_38_metasprites        spritesheet_38
     00157ABF  _spritesheet_38_animations         spritesheet_38
     00157ACF  _spritesheet_38_animations_looku   spritesheet_38
     00157AD1  _spritesheet_38                    spritesheet_38
     00157AE4  ___func_spritesheet_4              spritesheet_4
     00157AE4  _spritesheet_4_metasprite_0        spritesheet_4
     00157AEC  _spritesheet_4_metasprites         spritesheet_4
     00157AEE  _spritesheet_4_animations          spritesheet_4
     00157AFE  _spritesheet_4_animations_lookup   spritesheet_4
     00157B00  _spritesheet_4                     spritesheet_4
     00157B13  ___func_spritesheet_40             spritesheet_40
     00157B13  _spritesheet_40_metasprite_0       spritesheet_40
     00157B17  _spritesheet_40_metasprites        spritesheet_40
     00157B19  _spritesheet_40_animations         spritesheet_40
     00157B29  _spritesheet_40_animations_looku   spritesheet_40
     00157B2B  _spritesheet_40                    spritesheet_40
     00157B3E  ___func_spritesheet_41             spritesheet_41
     00157B3E  _spritesheet_41_metasprite_0       spritesheet_41
     00157B56  _spritesheet_41_metasprites        spritesheet_41
     00157B58  _spritesheet_41_animations         spritesheet_41
     00157B68  _spritesheet_41_animations_looku   spritesheet_41
     00157B6A  _spritesheet_41                    spritesheet_41
     00157B7D  ___func_spritesheet_42             spritesheet_42
     00157B7D  _spritesheet_42_metasprite_0       spritesheet_42
     00157B95  _spritesheet_42_metasprites        spritesheet_42
     00157B97  _spritesheet_42_animations         spritesheet_42
     00157BA7  _spritesheet_42_animations_looku   spritesheet_42
     00157BA9  _spritesheet_42                    spritesheet_42
     00157BBC  ___func_spritesheet_43             spritesheet_43
     00157BBC  _spritesheet_43_metasprite_0       spritesheet_43
     00157BD4  _spritesheet_43_metasprites        spritesheet_43
ASxxxx Linker V03.00 + NoICE + sdld,  page 81.
Hexadecimal  [32-Bits]

Area                                    Addr        Size        Decimal Bytes (Attributes)
--------------------------------        ----        ----        ------- ----- ------------
_CODE_21                            00154000    00003FFF =       16383. bytes (REL,CON)

      Value  Global                              Global Defined In Module
      -----  --------------------------------   ------------------------
     00157BD6  _spritesheet_43_animations         spritesheet_43
     00157BE6  _spritesheet_43_animations_looku   spritesheet_43
     00157BE8  _spritesheet_43                    spritesheet_43
     00157BFB  ___func_spritesheet_46             spritesheet_46
     00157BFB  _spritesheet_46_metasprite_0       spritesheet_46
     00157C13  _spritesheet_46_metasprites        spritesheet_46
     00157C15  _spritesheet_46_animations         spritesheet_46
     00157C25  _spritesheet_46_animations_looku   spritesheet_46
     00157C27  _spritesheet_46                    spritesheet_46
     00157C3A  ___func_spritesheet_47             spritesheet_47
     00157C3A  _spritesheet_47_metasprite_0       spritesheet_47
     00157C52  _spritesheet_47_metasprites        spritesheet_47
     00157C54  _spritesheet_47_animations         spritesheet_47
     00157C64  _spritesheet_47_animations_looku   spritesheet_47
     00157C66  _spritesheet_47                    spritesheet_47
     00157C79  ___func_spritesheet_48             spritesheet_48
     00157C79  _spritesheet_48_metasprite_0       spritesheet_48
     00157C91  _spritesheet_48_metasprites        spritesheet_48
     00157C93  _spritesheet_48_animations         spritesheet_48
     00157CA3  _spritesheet_48_animations_looku   spritesheet_48
     00157CA5  _spritesheet_48                    spritesheet_48
     00157CB8  ___func_spritesheet_5              spritesheet_5
     00157CB8  _spritesheet_5_metasprite_0        spritesheet_5
     00157CC0  _spritesheet_5_metasprites         spritesheet_5
     00157CC2  _spritesheet_5_animations          spritesheet_5
     00157CD2  _spritesheet_5_animations_lookup   spritesheet_5
     00157CD4  _spritesheet_5                     spritesheet_5
     00157CE7  ___func_spritesheet_6              spritesheet_6
     00157CE7  _spritesheet_6_metasprite_0        spritesheet_6
     00157CEF  _spritesheet_6_metasprites         spritesheet_6
     00157CF1  _spritesheet_6_animations          spritesheet_6
     00157D01  _spritesheet_6_animations_lookup   spritesheet_6
     00157D03  _spritesheet_6                     spritesheet_6
     00157D16  ___func_spritesheet_7              spritesheet_7
     00157D16  _spritesheet_7_metasprite_0        spritesheet_7
     00157D1E  _spritesheet_7_metasprites         spritesheet_7
     00157D20  _spritesheet_7_animations          spritesheet_7
     00157D30  _spritesheet_7_animations_lookup   spritesheet_7
     00157D32  _spritesheet_7                     spritesheet_7
     00157D45  ___func_spritesheet_8              spritesheet_8
     00157D45  _spritesheet_8_metasprite_0        spritesheet_8
     00157D51  _spritesheet_8_metasprites         spritesheet_8
     00157D53  _spritesheet_8_animations          spritesheet_8
     00157D63  _spritesheet_8_animations_lookup   spritesheet_8
     00157D65  _spritesheet_8                     spritesheet_8
     00157D78  ___func_spritesheet_9              spritesheet_9
     00157D78  _spritesheet_9_metasprite_0        spritesheet_9
     00157D80  _spritesheet_9_metasprites         spritesheet_9
     00157D82  _spritesheet_9_animations          spritesheet_9
     00157D92  _spritesheet_9_animations_lookup   spritesheet_9
     00157D94  _spritesheet_9                     spritesheet_9
ASxxxx Linker V03.00 + NoICE + sdld,  page 82.
Hexadecimal  [32-Bits]

Area                                    Addr        Size        Decimal Bytes (Attributes)
--------------------------------        ----        ----        ------- ----- ------------
_CODE_21                            00154000    00003FFF =       16383. bytes (REL,CON)

      Value  Global                              Global Defined In Module
      -----  --------------------------------   ------------------------
     00157DA7  ___func_tileset_18                 tileset_18
     00157DA7  _tileset_18                        tileset_18
     00157DC9  ___func_tileset_20                 tileset_20
     00157DC9  _tileset_20                        tileset_20
     00157DEB  ___func_tileset_21                 tileset_21
     00157DEB  _tileset_21                        tileset_21
     00157E0D  ___func_tileset_22                 tileset_22
     00157E0D  _tileset_22                        tileset_22
     00157E2F  ___func_tileset_23                 tileset_23
     00157E2F  _tileset_23                        tileset_23
     00157E51  ___func_tileset_24                 tileset_24
     00157E51  _tileset_24                        tileset_24
     00157E73  ___func_tileset_25                 tileset_25
     00157E73  _tileset_25                        tileset_25
     00157EB5  ___func_tileset_26                 tileset_26
     00157EB5  _tileset_26                        tileset_26
     00157ED7  ___func_tileset_27                 tileset_27
     00157ED7  _tileset_27                        tileset_27
     00157F19  ___func_tileset_29                 tileset_29
     00157F19  _tileset_29                        tileset_29
     00157F5B  ___func_tileset_48                 tileset_48
     00157F5B  _tileset_48                        tileset_48
     00157F9D  ___func_tileset_50                 tileset_50
     00157F9D  _tileset_50                        tileset_50

ASxxxx Linker V03.00 + NoICE + sdld,  page 83.
Hexadecimal  [32-Bits]

Area                                    Addr        Size        Decimal Bytes (Attributes)
--------------------------------        ----        ----        ------- ----- ------------
_CODE_13                            000D4000    00003FFF =       16383. bytes (REL,CON)

      Value  Global                              Global Defined In Module
      -----  --------------------------------   ------------------------
     000D4000  ___func_font_0                     font_0
     000D4DF0  _font_0                            font_0
     000D4DF8  ___func_scene_20_sprites           scene_20_sprites
     000D4DF8  _scene_20_sprites                  scene_20_sprites
     000D4E13  ___func_scene_8_actors             scene_8_actors
     000D4E13  _scene_8_actors                    scene_8_actors
     000D5197  ___func_tilemap_attr_19            tilemap_attr_19
     000D5197  _tilemap_attr_19                   tilemap_attr_19
     000D610F  ___func_tilemap_attr_20            tilemap_attr_20
     000D610F  _tilemap_attr_20                   tilemap_attr_20
     000D7087  ___func_tilemap_attr_21            tilemap_attr_21
     000D7087  _tilemap_attr_21                   tilemap_attr_21
ASxxxx Linker V03.00 + NoICE + sdld,  page 84.
Hexadecimal  [32-Bits]

Area                                    Addr        Size        Decimal Bytes (Attributes)
--------------------------------        ----        ----        ------- ----- ------------
_CODE_20                            00144000    00004000 =       16384. bytes (REL,CON)

      Value  Global                              Global Defined In Module
      -----  --------------------------------   ------------------------
     00144000  ___func_frame_image                frame_image
     00144000  _frame_image                       frame_image
     00144090  ___func_scene_12_projectiles       scene_12_projectiles
     00144090  _scene_12_projectiles              scene_12_projectiles
     00144103  ___func_scene_24_actors            scene_24_actors
     00144103  _scene_24_actors                   scene_24_actors
     00144167  _script_input_11                   script_input_11
     00144230  _script_input_8                    script_input_8
     001442F9  _script_s10_p_hit1                 script_s10_p_hit1
     001443AB  _script_s10a0_update               script_s10a0_update
     0014443B  _script_s10a1_update               script_s10a1_update
     001444A0  _script_s10a2_interact             script_s10a2_interact
     00144509  _script_s10t0_interact             script_s10t0_interact
     001445CB  _script_s11_init                   script_s11_init
     00144645  _script_s12_p_hit1                 script_s12_p_hit1
     001446F7  _script_s12a0_update               script_s12a0_update
     00144787  _script_s12a10_update              script_s12a10_update
     001447F1  _script_s12a15_update              script_s12a15_update
     0014485B  _script_s12a17_interact            script_s12a17_interact
     001448F2  _script_s12a5_update               script_s12a5_update
     0014495C  _script_s12t0_interact             script_s12t0_interact
     00144A1E  _script_s13_init                   script_s13_init
     00144A98  _script_s14_p_hit1                 script_s14_p_hit1
     00144B4A  _script_s14a0_update               script_s14a0_update
     00144BDA  _script_s14a19_interact            script_s14a19_interact
     00144C43  _script_s14t0_interact             script_s14t0_interact
     00144D05  _script_s15_init                   script_s15_init
     00144D7F  _script_s16a0_update               script_s16a0_update
     00144E0F  _script_s16a14_update              script_s16a14_update
     00144E8B  _script_s16a17_update              script_s16a17_update
     00144F07  _script_s16a19_interact            script_s16a19_interact
     00144F70  _script_s16a7_update               script_s16a7_update
     00144FEC  _script_s16a8_update               script_s16a8_update
     00145068  _script_s17_init                   script_s17_init
     001450E2  _script_s18a0_update               script_s18a0_update
     00145172  _script_s18a19_interact            script_s18a19_interact
     001451DB  _script_s19_init                   script_s19_init
     00145255  _script_s20_p_hit1                 script_s20_p_hit1
     00145307  _script_s20a0_update               script_s20a0_update
     00145397  _script_s20a5_interact             script_s20a5_interact
     00145400  _script_s20t0_interact             script_s20t0_interact
     001454C2  _script_s21_init                   script_s21_init
     0014553C  _script_s22a0_update               script_s22a0_update
     001455CC  _script_s22a14_update              script_s22a14_update
     00145690  _script_s22a17_update              script_s22a17_update
     00145754  _script_s22a19_interact            script_s22a19_interact
     0014580D  _script_s22a8_update               script_s22a8_update
     001458D1  _script_s23_init                   script_s23_init
     0014594B  _script_s24_init                   script_s24_init
     001459CB  _script_s24a0_update               script_s24a0_update
ASxxxx Linker V03.00 + NoICE + sdld,  page 85.
Hexadecimal  [32-Bits]

Area                                    Addr        Size        Decimal Bytes (Attributes)
--------------------------------        ----        ----        ------- ----- ------------
_CODE_20                            00144000    00004000 =       16384. bytes (REL,CON)

      Value  Global                              Global Defined In Module
      -----  --------------------------------   ------------------------
     00145A31  _script_s24t0_interact             script_s24t0_interact
     00145AD1  _script_s25_init                   script_s25_init
     00145B4B  _script_s26a0_update               script_s26a0_update
     00145BDB  _script_s26a11_update              script_s26a11_update
     00145C45  _script_s26a14_interact            script_s26a14_interact
     00145CAE  _script_s26a15_update              script_s26a15_update
     00145D18  _script_s27_init                   script_s27_init
     00145D92  _script_s28a3_interact             script_s28a3_interact
     00145DFB  _script_s28a4_update               script_s28a4_update
     00145E8B  _script_s29_init                   script_s29_init
     00145F05  _script_s30_init                   script_s30_init
     00145F85  _script_s30a0_update               script_s30a0_update
     00145FEB  _script_s30t0_interact             script_s30t0_interact
     0014608B  _script_s31_init                   script_s31_init
     00146105  _script_s32_init                   script_s32_init
     00146185  _script_s32a0_update               script_s32a0_update
     001461EB  _script_s32t0_interact             script_s32t0_interact
     0014628B  _script_s33_init                   script_s33_init
     00146305  _script_s34_init                   script_s34_init
     00146385  _script_s34a0_update               script_s34a0_update
     001463EB  _script_s34t0_interact             script_s34t0_interact
     0014648B  _script_s37_init                   script_s37_init
     00146509  _script_s39_init                   script_s39_init
     00146583  _script_s40_init                   script_s40_init
     001465FD  _script_s7_init                    script_s7_init
     00146677  _script_s8_init                    script_s8_init
     00146735  _script_s8_p_hit1                  script_s8_p_hit1
     001467E7  _script_s8a0_update                script_s8a0_update
     00146877  _script_s8a1_update                script_s8a1_update
     001468DC  _script_s8a2_interact              script_s8a2_interact
     00146945  _script_s8t0_interact              script_s8t0_interact
     00146A07  _script_s9_init                    script_s9_init
     00146A81  ___func_spritesheet_15             spritesheet_15
     00146A81  _spritesheet_15_metasprite_0       spritesheet_15
     00146A95  _spritesheet_15_metasprite_1       spritesheet_15
     00146AA9  _spritesheet_15_metasprite_2       spritesheet_15
     00146ABD  _spritesheet_15_metasprite_3       spritesheet_15
     00146AC9  _spritesheet_15_metasprite_4       spritesheet_15
     00146AD5  _spritesheet_15_metasprites        spritesheet_15
     00146ADF  _spritesheet_15_animations         spritesheet_15
     00146AEF  _spritesheet_15_animations_looku   spritesheet_15
     00146AF1  _spritesheet_15                    spritesheet_15
     00146B04  ___func_spritesheet_17             spritesheet_17
     00146B04  _spritesheet_17_metasprite_0       spritesheet_17
     00146B08  _spritesheet_17_metasprite_1       spritesheet_17
     00146B1C  _spritesheet_17_metasprite_2       spritesheet_17
     00146B30  _spritesheet_17_metasprite_3       spritesheet_17
     00146B44  _spritesheet_17_metasprite_4       spritesheet_17
     00146B58  _spritesheet_17_metasprites        spritesheet_17
     00146B62  _spritesheet_17_animations         spritesheet_17
     00146B72  _spritesheet_17_animations_looku   spritesheet_17
ASxxxx Linker V03.00 + NoICE + sdld,  page 86.
Hexadecimal  [32-Bits]

Area                                    Addr        Size        Decimal Bytes (Attributes)
--------------------------------        ----        ----        ------- ----- ------------
_CODE_20                            00144000    00004000 =       16384. bytes (REL,CON)

      Value  Global                              Global Defined In Module
      -----  --------------------------------   ------------------------
     00146B74  _spritesheet_17                    spritesheet_17
     00146B87  ___func_spritesheet_19             spritesheet_19
     00146B87  _spritesheet_19_metasprite_0       spritesheet_19
     00146B97  _spritesheet_19_metasprite_1       spritesheet_19
     00146BA7  _spritesheet_19_metasprite_2       spritesheet_19
     00146BB3  _spritesheet_19_metasprite_3       spritesheet_19
     00146BBF  _spritesheet_19_metasprite_4       spritesheet_19
     00146BCB  _spritesheet_19_metasprite_5       spritesheet_19
     00146BD7  _spritesheet_19_metasprites        spritesheet_19
     00146BE3  _spritesheet_19_animations         spritesheet_19
     00146BF3  _spritesheet_19_animations_looku   spritesheet_19
     00146BF5  _spritesheet_19                    spritesheet_19
     00146C08  ___func_spritesheet_22             spritesheet_22
     00146C08  _spritesheet_22_metasprite_0       spritesheet_22
     00146C0C  _spritesheet_22_metasprite_1       spritesheet_22
     00146C1C  _spritesheet_22_metasprite_2       spritesheet_22
     00146C2C  _spritesheet_22_metasprite_3       spritesheet_22
     00146C3C  _spritesheet_22_metasprite_4       spritesheet_22
     00146C4C  _spritesheet_22_metasprites        spritesheet_22
     00146C56  _spritesheet_22_animations         spritesheet_22
     00146C66  _spritesheet_22_animations_looku   spritesheet_22
     00146C68  _spritesheet_22                    spritesheet_22
     00146C7B  ___func_spritesheet_24             spritesheet_24
     00146C7B  _spritesheet_24_metasprite_0       spritesheet_24
     00146C87  _spritesheet_24_metasprite_1       spritesheet_24
     00146C97  _spritesheet_24_metasprite_2       spritesheet_24
     00146CA7  _spritesheet_24_metasprite_3       spritesheet_24
     00146CB3  _spritesheet_24_metasprite_4       spritesheet_24
     00146CC3  _spritesheet_24_metasprite_5       spritesheet_24
     00146CD3  _spritesheet_24_metasprites        spritesheet_24
     00146CDF  _spritesheet_24_animations         spritesheet_24
     00146CEF  _spritesheet_24_animations_looku   spritesheet_24
     00146CF1  _spritesheet_24                    spritesheet_24
     00146D04  ___func_spritesheet_27             spritesheet_27
     00146D04  _spritesheet_27_metasprite_0       spritesheet_27
     00146D08  _spritesheet_27_metasprite_1       spritesheet_27
     00146D1C  _spritesheet_27_metasprite_2       spritesheet_27
     00146D30  _spritesheet_27_metasprite_3       spritesheet_27
     00146D44  _spritesheet_27_metasprite_4       spritesheet_27
     00146D58  _spritesheet_27_metasprites        spritesheet_27
     00146D62  _spritesheet_27_animations         spritesheet_27
     00146D72  _spritesheet_27_animations_looku   spritesheet_27
     00146D74  _spritesheet_27                    spritesheet_27
     00146D87  ___func_spritesheet_28             spritesheet_28
     00146D87  _spritesheet_28_metasprite_0       spritesheet_28
     00146D8B  _spritesheet_28_metasprite_1       spritesheet_28
     00146D9F  _spritesheet_28_metasprite_2       spritesheet_28
     00146DB3  _spritesheet_28_metasprite_3       spritesheet_28
     00146DC7  _spritesheet_28_metasprite_4       spritesheet_28
     00146DDB  _spritesheet_28_metasprites        spritesheet_28
     00146DE5  _spritesheet_28_animations         spritesheet_28
ASxxxx Linker V03.00 + NoICE + sdld,  page 87.
Hexadecimal  [32-Bits]

Area                                    Addr        Size        Decimal Bytes (Attributes)
--------------------------------        ----        ----        ------- ----- ------------
_CODE_20                            00144000    00004000 =       16384. bytes (REL,CON)

      Value  Global                              Global Defined In Module
      -----  --------------------------------   ------------------------
     00146DF5  _spritesheet_28_animations_looku   spritesheet_28
     00146DF7  _spritesheet_28                    spritesheet_28
     00146E0A  ___func_spritesheet_31             spritesheet_31
     00146E0A  _spritesheet_31_metasprite_0       spritesheet_31
     00146E0E  _spritesheet_31_metasprite_1       spritesheet_31
     00146E22  _spritesheet_31_metasprite_2       spritesheet_31
     00146E36  _spritesheet_31_metasprite_3       spritesheet_31
     00146E4A  _spritesheet_31_metasprite_4       spritesheet_31
     00146E5E  _spritesheet_31_metasprites        spritesheet_31
     00146E68  _spritesheet_31_animations         spritesheet_31
     00146E78  _spritesheet_31_animations_looku   spritesheet_31
     00146E7A  _spritesheet_31                    spritesheet_31
     00146E8D  ___func_spritesheet_39             spritesheet_39
     00146E8D  _spritesheet_39_metasprite_0       spritesheet_39
     00146E91  _spritesheet_39_metasprite_1       spritesheet_39
     00146EB5  _spritesheet_39_metasprite_2       spritesheet_39
     00146ED9  _spritesheet_39_metasprite_3       spritesheet_39
     00146EFD  _spritesheet_39_metasprite_4       spritesheet_39
     00146F21  _spritesheet_39_metasprites        spritesheet_39
     00146F2B  _spritesheet_39_animations         spritesheet_39
     00146F3B  _spritesheet_39_animations_looku   spritesheet_39
     00146F3D  _spritesheet_39                    spritesheet_39
     00146F50  ___func_spritesheet_49             spritesheet_49
     00146F50  _spritesheet_49_metasprite_0       spritesheet_49
     00146F54  _spritesheet_49_metasprite_1       spritesheet_49
     00146F78  _spritesheet_49_metasprite_2       spritesheet_49
     00146F9C  _spritesheet_49_metasprite_3       spritesheet_49
     00146FC0  _spritesheet_49_metasprite_4       spritesheet_49
     00146FE4  _spritesheet_49_metasprites        spritesheet_49
     00146FEE  _spritesheet_49_animations         spritesheet_49
     00146FFE  _spritesheet_49_animations_looku   spritesheet_49
     00147000  _spritesheet_49                    spritesheet_49
     00147013  _spritesheet_none_metasprite       spritesheet_none
     00147017  _spritesheet_none_metasprites      spritesheet_none
     00147019  _spritesheet_none                  spritesheet_none
     0014702C  ___func_tileset_17                 tileset_17
     0014702C  _tileset_17                        tileset_17
     001470AE  ___func_tileset_19                 tileset_19
     001470AE  _tileset_19                        tileset_19
     00147130  ___func_tileset_30                 tileset_30
     00147130  _tileset_30                        tileset_30
     001471D2  ___func_tileset_31                 tileset_31
     001471D2  _tileset_31                        tileset_31
     00147294  ___func_tileset_32                 tileset_32
     00147294  _tileset_32                        tileset_32
     00147316  ___func_tileset_33                 tileset_33
     00147316  _tileset_33                        tileset_33
     001473D8  ___func_tileset_34                 tileset_34
     001473D8  _tileset_34                        tileset_34
     0014745A  ___func_tileset_35                 tileset_35
     0014745A  _tileset_35                        tileset_35
ASxxxx Linker V03.00 + NoICE + sdld,  page 88.
Hexadecimal  [32-Bits]

Area                                    Addr        Size        Decimal Bytes (Attributes)
--------------------------------        ----        ----        ------- ----- ------------
_CODE_20                            00144000    00004000 =       16384. bytes (REL,CON)

      Value  Global                              Global Defined In Module
      -----  --------------------------------   ------------------------
     001474FC  ___func_tileset_37                 tileset_37
     001474FC  _tileset_37                        tileset_37
     0014759E  ___func_tileset_38                 tileset_38
     0014759E  _tileset_38                        tileset_38
     00147660  ___func_tileset_39                 tileset_39
     00147660  _tileset_39                        tileset_39
     001476E2  ___func_tileset_41                 tileset_41
     001476E2  _tileset_41                        tileset_41
     00147784  ___func_tileset_44                 tileset_44
     00147784  _tileset_44                        tileset_44
     00147846  ___func_tileset_45                 tileset_45
     00147846  _tileset_45                        tileset_45
     001478C8  ___func_tileset_46                 tileset_46
     001478C8  _tileset_46                        tileset_46
     0014796A  ___func_tileset_49                 tileset_49
     0014796A  _tileset_49                        tileset_49
     00147A0C  ___func_tileset_51                 tileset_51
     00147A0C  _tileset_51                        tileset_51
     00147AAE  ___func_tileset_52                 tileset_52
     00147AAE  _tileset_52                        tileset_52
     00147B30  ___func_tileset_53                 tileset_53
     00147B30  _tileset_53                        tileset_53
     00147BB2  ___func_tileset_54                 tileset_54
     00147BB2  _tileset_54                        tileset_54
     00147C34  ___func_tileset_57                 tileset_57
     00147C34  _tileset_57                        tileset_57
     00147CD6  ___func_tileset_58                 tileset_58
     00147CD6  _tileset_58                        tileset_58
     00147D78  ___func_tileset_59                 tileset_59
     00147D78  _tileset_59                        tileset_59
     00147E1A  ___func_tileset_61                 tileset_61
     00147E1A  _tileset_61                        tileset_61
     00147EBC  ___func_tileset_62                 tileset_62
     00147EBC  _tileset_62                        tileset_62
     00147F5E  ___func_tileset_63                 tileset_63
     00147F5E  _tileset_63                        tileset_63

ASxxxx Linker V03.00 + NoICE + sdld,  page 89.
Hexadecimal  [32-Bits]

Area                                    Addr        Size        Decimal Bytes (Attributes)
--------------------------------        ----        ----        ------- ----- ------------
_CODE_16                            00104000    00004000 =       16384. bytes (REL,CON)

      Value  Global                              Global Defined In Module
      -----  --------------------------------   ------------------------
     00104000  ___func_scene_0_collisions         scene_0_collisions
     00104000  _scene_0_collisions                scene_0_collisions
     00104168  ___func_scene_1_collisions         scene_1_collisions
     00104168  _scene_1_collisions                scene_1_collisions
     001042D0  ___func_scene_10_actors            scene_10_actors
     001042D0  _scene_10_actors                   scene_10_actors
     001046B8  ___func_scene_11_collisions        scene_11_collisions
     001046B8  _scene_11_collisions               scene_11_collisions
     00104820  ___func_scene_12_actors            scene_12_actors
     00104820  _scene_12_actors                   scene_12_actors
     00104C08  ___func_scene_13_collisions        scene_13_collisions
     00104C08  _scene_13_collisions               scene_13_collisions
     00104D70  ___func_scene_14_actors            scene_14_actors
     00104D70  _scene_14_actors                   scene_14_actors
     00105158  ___func_scene_15_collisions        scene_15_collisions
     00105158  _scene_15_collisions               scene_15_collisions
     001052C0  ___func_scene_16_actors            scene_16_actors
     001052C0  _scene_16_actors                   scene_16_actors
     001056A8  ___func_scene_17_collisions        scene_17_collisions
     001056A8  _scene_17_collisions               scene_17_collisions
     00105810  ___func_scene_18_actors            scene_18_actors
     00105810  _scene_18_actors                   scene_18_actors
     00105BF8  ___func_scene_19_collisions        scene_19_collisions
     00105BF8  _scene_19_collisions               scene_19_collisions
     00105D60  ___func_scene_2_collisions         scene_2_collisions
     00105D60  _scene_2_collisions                scene_2_collisions
     00105EC8  ___func_scene_20_collisions        scene_20_collisions
     00105EC8  _scene_20_collisions               scene_20_collisions
     00106030  ___func_scene_21_collisions        scene_21_collisions
     00106030  _scene_21_collisions               scene_21_collisions
     00106198  ___func_scene_22_actors            scene_22_actors
     00106198  _scene_22_actors                   scene_22_actors
     00106580  ___func_scene_23_collisions        scene_23_collisions
     00106580  _scene_23_collisions               scene_23_collisions
     001066E8  ___func_scene_25_collisions        scene_25_collisions
     001066E8  _scene_25_collisions               scene_25_collisions
     00106850  ___func_scene_26_actors            scene_26_actors
     00106850  _scene_26_actors                   scene_26_actors
     00106C38  ___func_scene_27_collisions        scene_27_collisions
     00106C38  _scene_27_collisions               scene_27_collisions
     00106DA0  ___func_scene_28_collisions        scene_28_collisions
     00106DA0  _scene_28_collisions               scene_28_collisions
     00106F08  ___func_scene_29_collisions        scene_29_collisions
     00106F08  _scene_29_collisions               scene_29_collisions
     00107070  _script_input_2                    script_input_2
     00107235  _script_input_7                    script_input_7
     0010740C  _script_input_9                    script_input_9
     001075E3  _script_s10a11_interact            script_s10a11_interact
     001076B8  ___func_tileset_1                  tileset_1
     001076B8  _tileset_1                         tileset_1
ASxxxx Linker V03.00 + NoICE + sdld,  page 90.
Hexadecimal  [32-Bits]

Area                                    Addr        Size        Decimal Bytes (Attributes)
--------------------------------        ----        ----        ------- ----- ------------
_CODE_16                            00104000    00004000 =       16384. bytes (REL,CON)

      Value  Global                              Global Defined In Module
      -----  --------------------------------   ------------------------
     0010794A  ___func_tileset_14                 tileset_14
     0010794A  _tileset_14                        tileset_14
     00107CFC  ___func_tileset_40                 tileset_40
     00107CFC  _tileset_40                        tileset_40
     00107E7E  ___func_tileset_47                 tileset_47
     00107E7E  _tileset_47                        tileset_47

ASxxxx Linker V03.00 + NoICE + sdld,  page 91.
Hexadecimal  [32-Bits]

Area                                    Addr        Size        Decimal Bytes (Attributes)
--------------------------------        ----        ----        ------- ----- ------------
_CODE_6                             00064000    00004000 =       16384. bytes (REL,CON)

      Value  Global                              Global Defined In Module
      -----  --------------------------------   ------------------------
     00064000  ___func_scene_10_sprites           scene_10_sprites
     00064000  _scene_10_sprites                  scene_10_sprites
     0006401E  ___func_scene_18_collisions        scene_18_collisions
     0006401E  _scene_18_collisions               scene_18_collisions
     00064F96  ___func_scene_22_collisions        scene_22_collisions
     00064F96  _scene_22_collisions               scene_22_collisions
     00065F0E  ___func_scene_24_collisions        scene_24_collisions
     00065F0E  _scene_24_collisions               scene_24_collisions
     00066E86  ___func_scene_26_collisions        scene_26_collisions
     00066E86  _scene_26_collisions               scene_26_collisions
     00067DFE  ___func_tileset_55                 tileset_55
     00067DFE  _tileset_55                        tileset_55
ASxxxx Linker V03.00 + NoICE + sdld,  page 92.
Hexadecimal  [32-Bits]

Area                                    Addr        Size        Decimal Bytes (Attributes)
--------------------------------        ----        ----        ------- ----- ------------
_CODE_7                             00074000    00004000 =       16384. bytes (REL,CON)

      Value  Global                              Global Defined In Module
      -----  --------------------------------   ------------------------
     00074000  ___func_scene_16_sprites           scene_16_sprites
     00074000  _scene_16_sprites                  scene_16_sprites
     0007401E  ___func_scene_30_collisions        scene_30_collisions
     0007401E  _scene_30_collisions               scene_30_collisions
     00074F96  ___func_scene_32_collisions        scene_32_collisions
     00074F96  _scene_32_collisions               scene_32_collisions
     00075F0E  ___func_scene_34_collisions        scene_34_collisions
     00075F0E  _scene_34_collisions               scene_34_collisions
     00076E86  ___func_scene_8_collisions         scene_8_collisions
     00076E86  _scene_8_collisions                scene_8_collisions
     00077DFE  ___func_tileset_64                 tileset_64
     00077DFE  _tileset_64                        tileset_64
ASxxxx Linker V03.00 + NoICE + sdld,  page 93.
Hexadecimal  [32-Bits]

Area                                    Addr        Size        Decimal Bytes (Attributes)
--------------------------------        ----        ----        ------- ----- ------------
_CODE_18                            00124000    00003FFF =       16383. bytes (REL,CON)

      Value  Global                              Global Defined In Module
      -----  --------------------------------   ------------------------
     00124000  ___func_scene_2_sprites            scene_2_sprites
     00124000  _scene_2_sprites                   scene_2_sprites
     00124003  ___func_scene_20_actors            scene_20_actors
     00124003  _scene_20_actors                   scene_20_actors
     0012412F  ___func_scene_28_actors            scene_28_actors
     0012412F  _scene_28_actors                   scene_28_actors
     00124229  _script_input_0                    script_input_0
     0012430C  _script_s10a10_interact            script_s10a10_interact
     001243E6  _script_s10a16_interact            script_s10a16_interact
     001244C0  _script_s10a17_interact            script_s10a17_interact
     0012459A  _script_s10a18_interact            script_s10a18_interact
     00124674  _script_s12_init                   script_s12_init
     00124757  _script_s12a10_interact            script_s12a10_interact
     00124831  _script_s12a12_interact            script_s12a12_interact
     00124917  _script_s12a15_interact            script_s12a15_interact
     001249F1  _script_s12a5_interact             script_s12a5_interact
     00124ACB  _script_s14a10_interact            script_s14a10_interact
     00124BA9  _script_s14a11_interact            script_s14a11_interact
     00124C83  _script_s14a11_update              script_s14a11_update
     00124D65  _script_s14a13_interact            script_s14a13_interact
     00124E43  _script_s14a14_interact            script_s14a14_interact
     00124F1D  _script_s14a14_update              script_s14a14_update
     00124FFF  _script_s14a17_interact            script_s14a17_interact
     001250DD  _script_s14a4_interact             script_s14a4_interact
     001251B7  _script_s14a4_update               script_s14a4_update
     00125299  _script_s16_p_hit1                 script_s16_p_hit1
     0012538A  _script_s16a16_interact            script_s16a16_interact
     00125468  _script_s16a18_interact            script_s16a18_interact
     00125546  _script_s16a5_interact             script_s16a5_interact
     00125624  _script_s16a6_interact             script_s16a6_interact
     00125702  _script_s16t0_interact             script_s16t0_interact
     00125803  _script_s18_p_hit1                 script_s18_p_hit1
     001258F4  _script_s18a12_update              script_s18a12_update
     001259D6  _script_s18a16_update              script_s18a16_update
     00125AB8  _script_s18a7_update               script_s18a7_update
     00125B9A  _script_s18t0_interact             script_s18t0_interact
     00125C9B  _script_s20a3_interact             script_s20a3_interact
     00125DA9  _script_s20a3_update               script_s20a3_update
     00125F01  _script_s22_init                   script_s22_init
     00125FF8  _script_s22_p_hit1                 script_s22_p_hit1
     001260E9  _script_s22a18_update              script_s22a18_update
     001261CE  _script_s22a5_interact             script_s22a5_interact
     001262AF  _script_s22t0_interact             script_s22t0_interact
     001263B0  _script_s26_p_hit1                 script_s26_p_hit1
     001264A1  _script_s26t0_interact             script_s26t0_interact
     001265A2  _script_s28_p_hit1                 script_s28_p_hit1
     00126698  _script_s28a2_interact             script_s28a2_interact
     001267B2  _script_s28a2_update               script_s28a2_update
     00126911  _script_s28t0_interact             script_s28t0_interact
     00126A12  _script_s6a0_update                script_s6a0_update
ASxxxx Linker V03.00 + NoICE + sdld,  page 94.
Hexadecimal  [32-Bits]

Area                                    Addr        Size        Decimal Bytes (Attributes)
--------------------------------        ----        ----        ------- ----- ------------
_CODE_18                            00124000    00003FFF =       16383. bytes (REL,CON)

      Value  Global                              Global Defined In Module
      -----  --------------------------------   ------------------------
     00126B67  _script_s8a12_interact             script_s8a12_interact
     00126C45  _script_s8a14_interact             script_s8a14_interact
     00126D23  _script_s8a15_interact             script_s8a15_interact
     00126E01  _script_s8a7_interact              script_s8a7_interact
     00126EDF  ___func_spritesheet_26             spritesheet_26
     00126EDF  _spritesheet_26_metasprite_0       spritesheet_26
     00126EF3  _spritesheet_26_metasprite_1       spritesheet_26
     00126F07  _spritesheet_26_metasprite_2       spritesheet_26
     00126F1B  _spritesheet_26_metasprite_3       spritesheet_26
     00126F2F  _spritesheet_26_metasprite_4       spritesheet_26
     00126F43  _spritesheet_26_metasprite_5       spritesheet_26
     00126F57  _spritesheet_26_metasprites        spritesheet_26
     00126F63  _spritesheet_26_animations         spritesheet_26
     00126F73  _spritesheet_26_animations_looku   spritesheet_26
     00126F75  _spritesheet_26                    spritesheet_26
     00126F88  ___func_spritesheet_45             spritesheet_45
     00126F88  _spritesheet_45_metasprite_0       spritesheet_45
     00126F8C  _spritesheet_45_metasprite_1       spritesheet_45
     00126FB0  _spritesheet_45_metasprite_2       spritesheet_45
     00126FD4  _spritesheet_45_metasprite_3       spritesheet_45
     00126FF8  _spritesheet_45_metasprite_4       spritesheet_45
     0012701C  _spritesheet_45_metasprite_5       spritesheet_45
     00127040  _spritesheet_45_metasprite_6       spritesheet_45
     00127064  _spritesheet_45_metasprites        spritesheet_45
     00127072  _spritesheet_45_animations         spritesheet_45
     00127082  _spritesheet_45_animations_looku   spritesheet_45
     00127084  _spritesheet_45                    spritesheet_45
     00127097  ___func_tilemap_attr_22            tilemap_attr_22
     00127097  _tilemap_attr_22                   tilemap_attr_22
     001271FF  ___func_tilemap_attr_3             tilemap_attr_3
     001271FF  _tilemap_attr_3                    tilemap_attr_3
     00127367  ___func_tilemap_attr_4             tilemap_attr_4
     00127367  _tilemap_attr_4                    tilemap_attr_4
     001274CF  ___func_tilemap_attr_5             tilemap_attr_5
     001274CF  _tilemap_attr_5                    tilemap_attr_5
     00127637  ___func_tilemap_attr_6             tilemap_attr_6
     00127637  _tilemap_attr_6                    tilemap_attr_6
     0012779F  ___func_tilemap_attr_7             tilemap_attr_7
     0012779F  _tilemap_attr_7                    tilemap_attr_7
     00127907  ___func_tilemap_attr_8             tilemap_attr_8
     00127907  _tilemap_attr_8                    tilemap_attr_8
     00127A6F  ___func_tilemap_attr_9             tilemap_attr_9
     00127A6F  _tilemap_attr_9                    tilemap_attr_9
     00127BD7  ___func_tileset_28                 tileset_28
     00127BD7  _tileset_28                        tileset_28
     00127D19  ___func_tileset_36                 tileset_36
     00127D19  _tileset_36                        tileset_36
     00127E3B  ___func_tileset_42                 tileset_42
     00127E3B  _tileset_42                        tileset_42
     00127F1D  ___func_tileset_43                 tileset_43
     00127F1D  _tileset_43                        tileset_43

ASxxxx Linker V03.00 + NoICE + sdld,  page 95.
Hexadecimal  [32-Bits]

Area                                    Addr        Size        Decimal Bytes (Attributes)
--------------------------------        ----        ----        ------- ----- ------------
_CODE_17                            00114000    00003FFF =       16383. bytes (REL,CON)

      Value  Global                              Global Defined In Module
      -----  --------------------------------   ------------------------
     00114000  ___func_scene_3_collisions         scene_3_collisions
     00114000  _scene_3_collisions                scene_3_collisions
     00114168  ___func_scene_31_collisions        scene_31_collisions
     00114168  _scene_31_collisions               scene_31_collisions
     001142D0  ___func_scene_33_collisions        scene_33_collisions
     001142D0  _scene_33_collisions               scene_33_collisions
     00114438  ___func_scene_35_collisions        scene_35_collisions
     00114438  _scene_35_collisions               scene_35_collisions
     001145A0  ___func_scene_36_collisions        scene_36_collisions
     001145A0  _scene_36_collisions               scene_36_collisions
     00114708  ___func_scene_37_collisions        scene_37_collisions
     00114708  _scene_37_collisions               scene_37_collisions
     00114870  ___func_scene_38_collisions        scene_38_collisions
     00114870  _scene_38_collisions               scene_38_collisions
     001149D8  ___func_scene_39_collisions        scene_39_collisions
     001149D8  _scene_39_collisions               scene_39_collisions
     00114B40  ___func_scene_4_collisions         scene_4_collisions
     00114B40  _scene_4_collisions                scene_4_collisions
     00114CA8  ___func_scene_40_collisions        scene_40_collisions
     00114CA8  _scene_40_collisions               scene_40_collisions
     00114E10  ___func_scene_5_collisions         scene_5_collisions
     00114E10  _scene_5_collisions                scene_5_collisions
     00114F78  ___func_scene_6_collisions         scene_6_collisions
     00114F78  _scene_6_collisions                scene_6_collisions
     001150E0  ___func_scene_7_collisions         scene_7_collisions
     001150E0  _scene_7_collisions                scene_7_collisions
     00115248  ___func_scene_9_collisions         scene_9_collisions
     00115248  _scene_9_collisions                scene_9_collisions
     001153B0  _script_s0_init                    script_s0_init
     00115467  ___func_tilemap_0                  tilemap_0
     00115467  _tilemap_0                         tilemap_0
     001155CF  ___func_tilemap_1                  tilemap_1
     001155CF  _tilemap_1                         tilemap_1
     00115737  ___func_tilemap_10                 tilemap_10
     00115737  _tilemap_10                        tilemap_10
     0011589F  ___func_tilemap_11                 tilemap_11
     0011589F  _tilemap_11                        tilemap_11
     00115A07  ___func_tilemap_12                 tilemap_12
     00115A07  _tilemap_12                        tilemap_12
     00115B6F  ___func_tilemap_13                 tilemap_13
     00115B6F  _tilemap_13                        tilemap_13
     00115CD7  ___func_tilemap_14                 tilemap_14
     00115CD7  _tilemap_14                        tilemap_14
     00115E3F  ___func_tilemap_15                 tilemap_15
     00115E3F  _tilemap_15                        tilemap_15
     00115FA7  ___func_tilemap_16                 tilemap_16
     00115FA7  _tilemap_16                        tilemap_16
     0011610F  ___func_tilemap_17                 tilemap_17
     0011610F  _tilemap_17                        tilemap_17
     00116277  ___func_tilemap_18                 tilemap_18
ASxxxx Linker V03.00 + NoICE + sdld,  page 96.
Hexadecimal  [32-Bits]

Area                                    Addr        Size        Decimal Bytes (Attributes)
--------------------------------        ----        ----        ------- ----- ------------
_CODE_17                            00114000    00003FFF =       16383. bytes (REL,CON)

      Value  Global                              Global Defined In Module
      -----  --------------------------------   ------------------------
     00116277  _tilemap_18                        tilemap_18
     001163DF  ___func_tilemap_19                 tilemap_19
     001163DF  _tilemap_19                        tilemap_19
     00116547  ___func_tilemap_2                  tilemap_2
     00116547  _tilemap_2                         tilemap_2
     001166AF  ___func_tilemap_20                 tilemap_20
     001166AF  _tilemap_20                        tilemap_20
     00116817  ___func_tilemap_21                 tilemap_21
     00116817  _tilemap_21                        tilemap_21
     0011697F  ___func_tilemap_22                 tilemap_22
     0011697F  _tilemap_22                        tilemap_22
     00116AE7  ___func_tilemap_3                  tilemap_3
     00116AE7  _tilemap_3                         tilemap_3
     00116C4F  ___func_tilemap_35                 tilemap_35
     00116C4F  _tilemap_35                        tilemap_35
     00116DB7  ___func_tilemap_36                 tilemap_36
     00116DB7  _tilemap_36                        tilemap_36
     00116F1F  ___func_tilemap_37                 tilemap_37
     00116F1F  _tilemap_37                        tilemap_37
     00117087  ___func_tilemap_38                 tilemap_38
     00117087  _tilemap_38                        tilemap_38
     001171EF  ___func_tilemap_4                  tilemap_4
     001171EF  _tilemap_4                         tilemap_4
     00117357  ___func_tilemap_5                  tilemap_5
     00117357  _tilemap_5                         tilemap_5
     001174BF  ___func_tilemap_6                  tilemap_6
     001174BF  _tilemap_6                         tilemap_6
     00117627  ___func_tilemap_7                  tilemap_7
     00117627  _tilemap_7                         tilemap_7
     0011778F  ___func_tilemap_8                  tilemap_8
     0011778F  _tilemap_8                         tilemap_8
     001178F7  ___func_tilemap_9                  tilemap_9
     001178F7  _tilemap_9                         tilemap_9
     00117A5F  ___func_tilemap_attr_0             tilemap_attr_0
     00117A5F  _tilemap_attr_0                    tilemap_attr_0
     00117BC7  ___func_tilemap_attr_1             tilemap_attr_1
     00117BC7  _tilemap_attr_1                    tilemap_attr_1
     00117D2F  ___func_tilemap_attr_10            tilemap_attr_10
     00117D2F  _tilemap_attr_10                   tilemap_attr_10
     00117E97  ___func_tilemap_attr_2             tilemap_attr_2
     00117E97  _tilemap_attr_2                    tilemap_attr_2

ASxxxx Linker V03.00 + NoICE + sdld,  page 97.
Hexadecimal  [32-Bits]

Area                                    Addr        Size        Decimal Bytes (Attributes)
--------------------------------        ----        ----        ------- ----- ------------
_CODE_19                            00134000    00004000 =       16384. bytes (REL,CON)

      Value  Global                              Global Defined In Module
      -----  --------------------------------   ------------------------
     00134000  ___func_scene_3_sprites            scene_3_sprites
     00134000  _scene_3_sprites                   scene_3_sprites
     00134003  _script_s10_init                   script_s10_init
     001340D5  _script_s10a13_interact            script_s10a13_interact
     001341AA  _script_s10a15_interact            script_s10a15_interact
     0013427F  _script_s10a5_interact             script_s10a5_interact
     00134354  _script_s10a7_interact             script_s10a7_interact
     00134429  _script_s10a8_interact             script_s10a8_interact
     001344FE  _script_s10a9_interact             script_s10a9_interact
     001345D3  _script_s12a11_interact            script_s12a11_interact
     001346A8  _script_s12a13_interact            script_s12a13_interact
     0013477D  _script_s12a14_interact            script_s12a14_interact
     00134852  _script_s12a16_interact            script_s12a16_interact
     00134927  _script_s12a18_interact            script_s12a18_interact
     001349FC  _script_s12a4_interact             script_s12a4_interact
     00134AD1  _script_s12a7_interact             script_s12a7_interact
     00134BA6  _script_s12a8_interact             script_s12a8_interact
     00134C7B  _script_s12a9_interact             script_s12a9_interact
     00134D50  _script_s14_init                   script_s14_init
     00134E1D  _script_s14a12_interact            script_s14a12_interact
     00134EF2  _script_s14a16_interact            script_s14a16_interact
     00134FC7  _script_s14a6_interact             script_s14a6_interact
     0013509C  _script_s14a7_interact             script_s14a7_interact
     00135171  _script_s14a9_interact             script_s14a9_interact
     00135246  _script_s16_init                   script_s16_init
     00135318  _script_s16a10_interact            script_s16a10_interact
     001353ED  _script_s16a13_interact            script_s16a13_interact
     001354C2  _script_s16a14_interact            script_s16a14_interact
     0013559C  _script_s16a17_interact            script_s16a17_interact
     00135676  _script_s16a4_interact             script_s16a4_interact
     0013574B  _script_s16a7_interact             script_s16a7_interact
     00135825  _script_s16a8_interact             script_s16a8_interact
     001358FF  _script_s18_init                   script_s18_init
     001359CC  _script_s18a11_interact            script_s18a11_interact
     00135AA1  _script_s18a12_interact            script_s18a12_interact
     00135B7B  _script_s18a13_interact            script_s18a13_interact
     00135C50  _script_s18a14_interact            script_s18a14_interact
     00135D25  _script_s18a15_interact            script_s18a15_interact
     00135DFA  _script_s18a16_interact            script_s18a16_interact
     00135ED4  _script_s18a18_interact            script_s18a18_interact
     00135FA9  _script_s18a4_interact             script_s18a4_interact
     0013607E  _script_s18a5_interact             script_s18a5_interact
     00136153  _script_s18a7_interact             script_s18a7_interact
     0013622D  _script_s20_init                   script_s20_init
     001362FA  _script_s22a10_interact            script_s22a10_interact
     001363D4  _script_s22a13_interact            script_s22a13_interact
     001364A9  _script_s22a14_interact            script_s22a14_interact
     00136583  _script_s22a15_interact            script_s22a15_interact
     0013665D  _script_s22a16_interact            script_s22a16_interact
     00136737  _script_s22a17_interact            script_s22a17_interact
ASxxxx Linker V03.00 + NoICE + sdld,  page 98.
Hexadecimal  [32-Bits]

Area                                    Addr        Size        Decimal Bytes (Attributes)
--------------------------------        ----        ----        ------- ----- ------------
_CODE_19                            00134000    00004000 =       16384. bytes (REL,CON)

      Value  Global                              Global Defined In Module
      -----  --------------------------------   ------------------------
     00136811  _script_s22a18_interact            script_s22a18_interact
     001368EB  _script_s22a6_interact             script_s22a6_interact
     001369C5  _script_s22a8_interact             script_s22a8_interact
     00136A9F  _script_s22a9_interact             script_s22a9_interact
     00136B74  _script_s26_init                   script_s26_init
     00136C46  _script_s26a11_interact            script_s26a11_interact
     00136D20  _script_s26a12_interact            script_s26a12_interact
     00136DF5  _script_s26a13_interact            script_s26a13_interact
     00136ECA  _script_s26a15_interact            script_s26a15_interact
     00136FA4  _script_s26a16_interact            script_s26a16_interact
     00137079  _script_s26a17_interact            script_s26a17_interact
     0013714E  _script_s26a18_interact            script_s26a18_interact
     00137228  _script_s26a19_interact            script_s26a19_interact
     00137302  _script_s26a4_interact             script_s26a4_interact
     001373D7  _script_s26a6_interact             script_s26a6_interact
     001374AC  _script_s26a8_interact             script_s26a8_interact
     00137581  _script_s26a9_interact             script_s26a9_interact
     00137656  _script_s28_init                   script_s28_init
     00137723  _script_s8a11_interact             script_s8a11_interact
     001377F8  _script_s8a13_interact             script_s8a13_interact
     001378CD  _script_s8a16_interact             script_s8a16_interact
     001379A2  _script_s8a17_interact             script_s8a17_interact
     00137A77  _script_s8a3_interact              script_s8a3_interact
     00137B4C  _script_s8a5_interact              script_s8a5_interact
     00137C21  _script_s8a6_interact              script_s8a6_interact
     00137CF6  _script_s8a8_interact              script_s8a8_interact
     00137DCB  _script_s8a9_interact              script_s8a9_interact
     00137EA0  ___func_spritesheet_12             spritesheet_12
     00137EA0  _spritesheet_12_metasprite_0       spritesheet_12
     00137EAC  _spritesheet_12_metasprite_1       spritesheet_12
     00137EB8  _spritesheet_12_metasprite_2       spritesheet_12
     00137ECC  _spritesheet_12_metasprite_3       spritesheet_12
     00137ED8  _spritesheet_12_metasprite_4       spritesheet_12
     00137EDC  _spritesheet_12_metasprite_5       spritesheet_12
     00137EE8  _spritesheet_12_metasprite_6       spritesheet_12
     00137EF4  _spritesheet_12_metasprite_7       spritesheet_12
     00137F00  _spritesheet_12_metasprite_8       spritesheet_12
     00137F0C  _spritesheet_12_metasprite_9       spritesheet_12
     00137F18  _spritesheet_12_metasprites        spritesheet_12
     00137F38  _spritesheet_12_animations         spritesheet_12
     00137F58  _spritesheet_12_animations_looku   spritesheet_12
     00137F5C  _spritesheet_12                    spritesheet_12
     00137F6F  ___func_spritesheet_20             spritesheet_20
     00137F6F  _spritesheet_20_metasprite_0       spritesheet_20
     00137F7F  _spritesheet_20_metasprite_1       spritesheet_20
     00137F8F  _spritesheet_20_metasprite_2       spritesheet_20
     00137F9F  _spritesheet_20_metasprite_3       spritesheet_20
     00137FAF  _spritesheet_20_metasprite_4       spritesheet_20
     00137FBF  _spritesheet_20_metasprite_5       spritesheet_20
     00137FCF  _spritesheet_20_metasprites        spritesheet_20
     00137FDB  _spritesheet_20_animations         spritesheet_20
ASxxxx Linker V03.00 + NoICE + sdld,  page 99.
Hexadecimal  [32-Bits]

Area                                    Addr        Size        Decimal Bytes (Attributes)
--------------------------------        ----        ----        ------- ----- ------------
_CODE_19                            00134000    00004000 =       16384. bytes (REL,CON)

      Value  Global                              Global Defined In Module
      -----  --------------------------------   ------------------------
     00137FEB  _spritesheet_20_animations_looku   spritesheet_20
     00137FED  _spritesheet_20                    spritesheet_20

ASxxxx Linker V03.00 + NoICE + sdld,  page 100.
Hexadecimal  [32-Bits]

Area                                    Addr        Size        Decimal Bytes (Attributes)
--------------------------------        ----        ----        ------- ----- ------------
_CODE_10                            000A4000    00003FFF =       16383. bytes (REL,CON)

      Value  Global                              Global Defined In Module
      -----  --------------------------------   ------------------------
     000A4000  _script_engine_init                
     000A4048  _script_input_4                    script_input_4
     000A421F  ___func_tilemap_31                 tilemap_31
     000A421F  _tilemap_31                        tilemap_31
     000A5197  ___func_tilemap_32                 tilemap_32
     000A5197  _tilemap_32                        tilemap_32
     000A610F  ___func_tilemap_33                 tilemap_33
     000A610F  _tilemap_33                        tilemap_33
     000A7087  ___func_tilemap_34                 tilemap_34
     000A7087  _tilemap_34                        tilemap_34

ASxxxx Linker V03.00 + NoICE + sdld,  page 101.
Hexadecimal  [32-Bits]

Area                                    Addr        Size        Decimal Bytes (Attributes)
--------------------------------        ----        ----        ------- ----- ------------
_CODE_8                             00084000    00004000 =       16384. bytes (REL,CON)

      Value  Global                              Global Defined In Module
      -----  --------------------------------   ------------------------
     00084000  _script_input_10                   script_input_10
     000841D7  ___func_spritesheet_34             spritesheet_34
     000841D7  _spritesheet_34_metasprite_0       spritesheet_34
     000841E7  _spritesheet_34_metasprite_1       spritesheet_34
     000841F7  _spritesheet_34_metasprites        spritesheet_34
     000841FB  _spritesheet_34_animations         spritesheet_34
     0008420B  _spritesheet_34_animations_looku   spritesheet_34
     0008420D  _spritesheet_34                    spritesheet_34
     00084220  ___func_tilemap_23                 tilemap_23
     00084220  _tilemap_23                        tilemap_23
     00085198  ___func_tilemap_24                 tilemap_24
     00085198  _tilemap_24                        tilemap_24
     00086110  ___func_tilemap_25                 tilemap_25
     00086110  _tilemap_25                        tilemap_25
     00087088  ___func_tilemap_26                 tilemap_26
     00087088  _tilemap_26                        tilemap_26

ASxxxx Linker V03.00 + NoICE + sdld,  page 102.
Hexadecimal  [32-Bits]

Area                                    Addr        Size        Decimal Bytes (Attributes)
--------------------------------        ----        ----        ------- ----- ------------
_CODE_9                             00094000    00004000 =       16384. bytes (REL,CON)

      Value  Global                              Global Defined In Module
      -----  --------------------------------   ------------------------
     00094000  _script_input_3                    script_input_3
     000941D7  ___func_spritesheet_44             spritesheet_44
     000941D7  _spritesheet_44_metasprite_0       spritesheet_44
     000941E7  _spritesheet_44_metasprite_1       spritesheet_44
     000941F7  _spritesheet_44_metasprites        spritesheet_44
     000941FB  _spritesheet_44_animations         spritesheet_44
     0009420B  _spritesheet_44_animations_looku   spritesheet_44
     0009420D  _spritesheet_44                    spritesheet_44
     00094220  ___func_tilemap_27                 tilemap_27
     00094220  _tilemap_27                        tilemap_27
     00095198  ___func_tilemap_28                 tilemap_28
     00095198  _tilemap_28                        tilemap_28
     00096110  ___func_tilemap_29                 tilemap_29
     00096110  _tilemap_29                        tilemap_29
     00097088  ___func_tilemap_30                 tilemap_30
     00097088  _tilemap_30                        tilemap_30

ASxxxx Linker V03.00 + NoICE + sdld,  page 103.
Hexadecimal  [32-Bits]

Area                                    Addr        Size        Decimal Bytes (Attributes)
--------------------------------        ----        ----        ------- ----- ------------
_CODE_11                            000B4000    00003FFF =       16383. bytes (REL,CON)

      Value  Global                              Global Defined In Module
      -----  --------------------------------   ------------------------
     000B4000  _script_input_5                    script_input_5
     000B41D7  _script_s10a11_update              script_s10a11_update
     000B421F  ___func_tilemap_attr_11            tilemap_attr_11
     000B421F  _tilemap_attr_11                   tilemap_attr_11
     000B5197  ___func_tilemap_attr_12            tilemap_attr_12
     000B5197  _tilemap_attr_12                   tilemap_attr_12
     000B610F  ___func_tilemap_attr_13            tilemap_attr_13
     000B610F  _tilemap_attr_13                   tilemap_attr_13
     000B7087  ___func_tilemap_attr_14            tilemap_attr_14
     000B7087  _tilemap_attr_14                   tilemap_attr_14

ASxxxx Linker V03.00 + NoICE + sdld,  page 104.
Hexadecimal  [32-Bits]

Area                                    Addr        Size        Decimal Bytes (Attributes)
--------------------------------        ----        ----        ------- ----- ------------
_CODE_12                            000C4000    00003FFF =       16383. bytes (REL,CON)

      Value  Global                              Global Defined In Module
      -----  --------------------------------   ------------------------
     000C4000  _script_input_6                    script_input_6
     000C41D7  _script_s10a13_update              script_s10a13_update
     000C421F  ___func_tilemap_attr_15            tilemap_attr_15
     000C421F  _tilemap_attr_15                   tilemap_attr_15
     000C5197  ___func_tilemap_attr_16            tilemap_attr_16
     000C5197  _tilemap_attr_16                   tilemap_attr_16
     000C610F  ___func_tilemap_attr_17            tilemap_attr_17
     000C610F  _tilemap_attr_17                   tilemap_attr_17
     000C7087  ___func_tilemap_attr_18            tilemap_attr_18
     000C7087  _tilemap_attr_18                   tilemap_attr_18

ASxxxx Linker V03.00 + NoICE + sdld,  page 105.
Hexadecimal  [32-Bits]

Area                                    Addr        Size        Decimal Bytes (Attributes)
--------------------------------        ----        ----        ------- ----- ------------
_CODE_15                            000F4000    00003FFE =       16382. bytes (REL,CON)

      Value  Global                              Global Defined In Module
      -----  --------------------------------   ------------------------
     000F4000  _script_s26a18_update              script_s26a18_update
     000F4051  _script_s3a0_update                script_s3a0_update
     000F427E  ___func_tileset_0                  tileset_0
     000F427E  _tileset_0                         tileset_0
     000F47F0  ___func_tileset_11                 tileset_11
     000F47F0  _tileset_11                        tileset_11
     000F5012  ___func_tileset_13                 tileset_13
     000F5012  _tileset_13                        tileset_13
     000F5654  ___func_tileset_15                 tileset_15
     000F5654  _tileset_15                        tileset_15
     000F5EC6  ___func_tileset_3                  tileset_3
     000F5EC6  _tileset_3                         tileset_3
     000F6308  ___func_tileset_4                  tileset_4
     000F6308  _tileset_4                         tileset_4
     000F672A  ___func_tileset_5                  tileset_5
     000F672A  _tileset_5                         tileset_5
     000F6F8C  ___func_tileset_8                  tileset_8
     000F6F8C  _tileset_8                         tileset_8
     000F770E  _miau                              miau

ASxxxx Linker V03.00 + NoICE + sdld,  page 106.
Hexadecimal  [32-Bits]

Area                                    Addr        Size        Decimal Bytes (Attributes)
--------------------------------        ----        ----        ------- ----- ------------
_CODE_14                            000E4000    00003FFE =       16382. bytes (REL,CON)

      Value  Global                              Global Defined In Module
      -----  --------------------------------   ------------------------
     000E4000  ___func_tileset_10                 tileset_10
     000E4000  _tileset_10                        tileset_10
     000E4BE2  ___func_tileset_12                 tileset_12
     000E4BE2  _tileset_12                        tileset_12
     000E54D4  ___func_tileset_16                 tileset_16
     000E54D4  _tileset_16                        tileset_16
     000E5DD6  ___func_tileset_6                  tileset_6
     000E5DD6  _tileset_6                         tileset_6
     000E6738  ___func_tileset_60                 tileset_60
     000E6738  _tileset_60                        tileset_60
     000E6A3A  ___func_tileset_7                  tileset_7
     000E6A3A  _tileset_7                         tileset_7
     000E743C  ___func_tileset_9                  tileset_9
     000E743C  _tileset_9                         tileset_9

ASxxxx Linker V03.00 + NoICE + sdld,  page 107.
Hexadecimal  [32-Bits]

Area                                    Addr        Size        Decimal Bytes (Attributes)
--------------------------------        ----        ----        ------- ----- ------------
_CODE_3                             00034000    00002ADB =       10971. bytes (REL,CON)

      Value  Global                              Global Defined In Module
      -----  --------------------------------   ------------------------
     00034000  _adventure_init                    adventure
     00034015  _adventure_update                  adventure
     0003475D  _logo_init                         logo
     0003476D  _logo_update                       logo
     0003476E  _platform_init                     platform
     00034925  _platform_update                   platform
     00035956  _pointnclick_init                  pointnclick
     0003598F  _pointnclick_update                pointnclick
     00035C9B  _shmup_init                        shmup
     00035D37  _shmup_update                      shmup
     000363CD  _topdown_init                      topdown
     00036464  _topdown_update                    topdown
ASxxxx Linker V03.00 + NoICE + sdld,  page 108.
Hexadecimal  [32-Bits]

Area                                    Addr        Size        Decimal Bytes (Attributes)
--------------------------------        ----        ----        ------- ----- ------------
_HEADER_LCD0                        00000000    00000003 =           3. bytes (ABS,CON)

      Value  Global                              Global Defined In Module
      -----  --------------------------------   ------------------------
ASxxxx Linker V03.00 + NoICE + sdld,  page 109.

Files Linked                              [ module(s) ]

C:\Users\luisc\AppData\Local\Temp/_gbstools/gbdk/lib/small/asxxxx/gb/crt0.o
                                          [ Runtime ]
C:/Users/luisc/AppData/Local/Temp/_gbsbuild/obj/absolute.rel
                                          [ absolute ]
C:/Users/luisc/AppData/Local/Temp/_gbsbuild/obj/actor.rel
                                          [ actor ]
C:/Users/luisc/AppData/Local/Temp/_gbsbuild/obj/bankdata.rel
                                          [ bankdata ]
C:/Users/luisc/AppData/Local/Temp/_gbsbuild/obj/bootstrap.rel
                                          [  ]
C:/Users/luisc/AppData/Local/Temp/_gbsbuild/obj/camera.rel
                                          [ camera ]
C:/Users/luisc/AppData/Local/Temp/_gbsbuild/obj/core.rel
                                          [ core ]
C:/Users/luisc/AppData/Local/Temp/_gbsbuild/obj/crash_handler.rel
                                          [  ]
C:/Users/luisc/AppData/Local/Temp/_gbsbuild/obj/data_manager.rel
                                          [ data_manager ]
C:/Users/luisc/AppData/Local/Temp/_gbsbuild/obj/events.rel
                                          [ events ]
C:/Users/luisc/AppData/Local/Temp/_gbsbuild/obj/fade_manager.rel
                                          [ fade_manager ]
C:/Users/luisc/AppData/Local/Temp/_gbsbuild/obj/flasher_s.rel
                                          [  ]
C:/Users/luisc/AppData/Local/Temp/_gbsbuild/obj/flasher.rel
                                          [ flasher ]
C:/Users/luisc/AppData/Local/Temp/_gbsbuild/obj/game_time.rel
                                          [ game_time ]
C:/Users/luisc/AppData/Local/Temp/_gbsbuild/obj/input.rel
                                          [ input ]
C:/Users/luisc/AppData/Local/Temp/_gbsbuild/obj/interrupt_sio.rel
                                          [  ]
C:/Users/luisc/AppData/Local/Temp/_gbsbuild/obj/interrupt_timer.rel
                                          [  ]
C:/Users/luisc/AppData/Local/Temp/_gbsbuild/obj/interrupts.rel
                                          [ interrupts ]
C:/Users/luisc/AppData/Local/Temp/_gbsbuild/obj/load_save.rel
                                          [ load_save ]
C:/Users/luisc/AppData/Local/Temp/_gbsbuild/obj/math.rel
                                          [ math ]
C:/Users/luisc/AppData/Local/Temp/_gbsbuild/obj/music_manager.rel
                                          [ music_manager ]
C:/Users/luisc/AppData/Local/Temp/_gbsbuild/obj/oam_utils.rel
                                          [ OAM_utils ]
C:/Users/luisc/AppData/Local/Temp/_gbsbuild/obj/palette.rel
                                          [ palette ]
C:/Users/luisc/AppData/Local/Temp/_gbsbuild/obj/parallax.rel
                                          [ parallax ]
C:/Users/luisc/AppData/Local/Temp/_gbsbuild/obj/projectiles.rel
                                          [ projectiles ]
C:/Users/luisc/AppData/Local/Temp/_gbsbuild/obj/sample_player.rel
                                          [ sample_player ]
C:/Users/luisc/AppData/Local/Temp/_gbsbuild/obj/scroll_a.rel
                                          [  ]
C:/Users/luisc/AppData/Local/Temp/_gbsbuild/obj/scroll.rel
                                          [ scroll ]
C:/Users/luisc/AppData/Local/Temp/_gbsbuild/obj/set_tile_submap.rel
                                          [  ]
C:/Users/luisc/AppData/Local/Temp/_gbsbuild/obj/sgb_border.rel
                                          [ sgb_border ]
C:/Users/luisc/AppData/Local/Temp/_gbsbuild/obj/sio.rel
                                          [ sio ]
C:/Users/luisc/AppData/Local/Temp/_gbsbuild/obj/states_caller.rel
                                          [  ]
C:/Users/luisc/AppData/Local/Temp/_gbsbuild/obj/system.rel
                                          [ system ]
C:/Users/luisc/AppData/Local/Temp/_gbsbuild/obj/trigger.rel
                                          [ trigger ]
C:/Users/luisc/AppData/Local/Temp/_gbsbuild/obj/ui_a.rel
                                          [  ]
C:/Users/luisc/AppData/Local/Temp/_gbsbuild/obj/ui.rel
                                          [ ui ]
C:/Users/luisc/AppData/Local/Temp/_gbsbuild/obj/vm_actor.rel
                                          [ vm_actor ]
C:/Users/luisc/AppData/Local/Temp/_gbsbuild/obj/vm_camera.rel
                                          [ vm_camera ]
C:/Users/luisc/AppData/Local/Temp/_gbsbuild/obj/vm_gameboy.rel
                                          [ vm_gameboy ]
C:/Users/luisc/AppData/Local/Temp/_gbsbuild/obj/vm_instructions.rel
                                          [ vm_instructions ]
C:/Users/luisc/AppData/Local/Temp/_gbsbuild/obj/vm_load_save.rel
                                          [ vm_load_save ]
C:/Users/luisc/AppData/Local/Temp/_gbsbuild/obj/vm_math.rel
                                          [ vm_math ]
C:/Users/luisc/AppData/Local/Temp/_gbsbuild/obj/vm_music.rel
                                          [ vm_music ]
C:/Users/luisc/AppData/Local/Temp/_gbsbuild/obj/vm_palette.rel
                                          [ vm_palette ]
C:/Users/luisc/AppData/Local/Temp/_gbsbuild/obj/vm_projectiles.rel
                                          [ vm_projectiles ]
C:/Users/luisc/AppData/Local/Temp/_gbsbuild/obj/vm_rtc.rel
                                          [ vm_rtc ]
C:/Users/luisc/AppData/Local/Temp/_gbsbuild/obj/vm_scene.rel
                                          [ vm_scene ]
C:/Users/luisc/AppData/Local/Temp/_gbsbuild/obj/vm_sgb.rel
                                          [ vm_sgb ]
C:/Users/luisc/AppData/Local/Temp/_gbsbuild/obj/vm_sio.rel
                                          [ vm_sio ]
C:/Users/luisc/AppData/Local/Temp/_gbsbuild/obj/vm_ui_a.rel
                                          [ vm_ui_a ]
C:/Users/luisc/AppData/Local/Temp/_gbsbuild/obj/vm_ui.rel
                                          [ vm_ui ]
C:/Users/luisc/AppData/Local/Temp/_gbsbuild/obj/vm.rel
                                          [ vm ]
C:/Users/luisc/AppData/Local/Temp/_gbsbuild/obj/background_0.rel
                                          [ background_0 ]
C:/Users/luisc/AppData/Local/Temp/_gbsbuild/obj/background_1.rel
                                          [ background_1 ]
C:/Users/luisc/AppData/Local/Temp/_gbsbuild/obj/background_10.rel
                                          [ background_10 ]
C:/Users/luisc/AppData/Local/Temp/_gbsbuild/obj/background_11.rel
                                          [ background_11 ]
C:/Users/luisc/AppData/Local/Temp/_gbsbuild/obj/background_12.rel
                                          [ background_12 ]
C:/Users/luisc/AppData/Local/Temp/_gbsbuild/obj/background_13.rel
                                          [ background_13 ]
C:/Users/luisc/AppData/Local/Temp/_gbsbuild/obj/background_14.rel
                                          [ background_14 ]
C:/Users/luisc/AppData/Local/Temp/_gbsbuild/obj/background_15.rel
                                          [ background_15 ]
C:/Users/luisc/AppData/Local/Temp/_gbsbuild/obj/background_16.rel
                                          [ background_16 ]
C:/Users/luisc/AppData/Local/Temp/_gbsbuild/obj/background_17.rel
                                          [ background_17 ]
C:/Users/luisc/AppData/Local/Temp/_gbsbuild/obj/background_18.rel
                                          [ background_18 ]
C:/Users/luisc/AppData/Local/Temp/_gbsbuild/obj/background_19.rel
                                          [ background_19 ]
C:/Users/luisc/AppData/Local/Temp/_gbsbuild/obj/background_2.rel
                                          [ background_2 ]
C:/Users/luisc/AppData/Local/Temp/_gbsbuild/obj/background_20.rel
                                          [ background_20 ]
C:/Users/luisc/AppData/Local/Temp/_gbsbuild/obj/background_21.rel
                                          [ background_21 ]
C:/Users/luisc/AppData/Local/Temp/_gbsbuild/obj/background_22.rel
                                          [ background_22 ]
C:/Users/luisc/AppData/Local/Temp/_gbsbuild/obj/background_23.rel
                                          [ background_23 ]
C:/Users/luisc/AppData/Local/Temp/_gbsbuild/obj/background_24.rel
                                          [ background_24 ]
C:/Users/luisc/AppData/Local/Temp/_gbsbuild/obj/background_25.rel
                                          [ background_25 ]
C:/Users/luisc/AppData/Local/Temp/_gbsbuild/obj/background_26.rel
                                          [ background_26 ]
C:/Users/luisc/AppData/Local/Temp/_gbsbuild/obj/background_27.rel
                                          [ background_27 ]
C:/Users/luisc/AppData/Local/Temp/_gbsbuild/obj/background_28.rel
                                          [ background_28 ]
C:/Users/luisc/AppData/Local/Temp/_gbsbuild/obj/background_29.rel
                                          [ background_29 ]
C:/Users/luisc/AppData/Local/Temp/_gbsbuild/obj/background_3.rel
                                          [ background_3 ]
C:/Users/luisc/AppData/Local/Temp/_gbsbuild/obj/background_30.rel
                                          [ background_30 ]
C:/Users/luisc/AppData/Local/Temp/_gbsbuild/obj/background_31.rel
                                          [ background_31 ]
C:/Users/luisc/AppData/Local/Temp/_gbsbuild/obj/background_32.rel
                                          [ background_32 ]
C:/Users/luisc/AppData/Local/Temp/_gbsbuild/obj/background_33.rel
                                          [ background_33 ]
C:/Users/luisc/AppData/Local/Temp/_gbsbuild/obj/background_34.rel
                                          [ background_34 ]
C:/Users/luisc/AppData/Local/Temp/_gbsbuild/obj/background_35.rel
                                          [ background_35 ]
C:/Users/luisc/AppData/Local/Temp/_gbsbuild/obj/background_36.rel
                                          [ background_36 ]
C:/Users/luisc/AppData/Local/Temp/_gbsbuild/obj/background_37.rel
                                          [ background_37 ]
C:/Users/luisc/AppData/Local/Temp/_gbsbuild/obj/background_38.rel
                                          [ background_38 ]
C:/Users/luisc/AppData/Local/Temp/_gbsbuild/obj/background_4.rel
                                          [ background_4 ]
C:/Users/luisc/AppData/Local/Temp/_gbsbuild/obj/background_5.rel
                                          [ background_5 ]
C:/Users/luisc/AppData/Local/Temp/_gbsbuild/obj/background_6.rel
                                          [ background_6 ]
C:/Users/luisc/AppData/Local/Temp/_gbsbuild/obj/background_7.rel
                                          [ background_7 ]
C:/Users/luisc/AppData/Local/Temp/_gbsbuild/obj/background_8.rel
                                          [ background_8 ]
C:/Users/luisc/AppData/Local/Temp/_gbsbuild/obj/background_9.rel
                                          [ background_9 ]
C:/Users/luisc/AppData/Local/Temp/_gbsbuild/obj/cursor_image.rel
                                          [ cursor_image ]
C:/Users/luisc/AppData/Local/Temp/_gbsbuild/obj/font_0.rel
                                          [ font_0 ]
C:/Users/luisc/AppData/Local/Temp/_gbsbuild/obj/frame_image.rel
                                          [ frame_image ]
C:/Users/luisc/AppData/Local/Temp/_gbsbuild/obj/palette_0.rel
                                          [ palette_0 ]
C:/Users/luisc/AppData/Local/Temp/_gbsbuild/obj/palette_1.rel
                                          [ palette_1 ]
C:/Users/luisc/AppData/Local/Temp/_gbsbuild/obj/palette_10.rel
                                          [ palette_10 ]
C:/Users/luisc/AppData/Local/Temp/_gbsbuild/obj/palette_11.rel
                                          [ palette_11 ]
C:/Users/luisc/AppData/Local/Temp/_gbsbuild/obj/palette_12.rel
                                          [ palette_12 ]
C:/Users/luisc/AppData/Local/Temp/_gbsbuild/obj/palette_13.rel
                                          [ palette_13 ]
C:/Users/luisc/AppData/Local/Temp/_gbsbuild/obj/palette_14.rel
                                          [ palette_14 ]
C:/Users/luisc/AppData/Local/Temp/_gbsbuild/obj/palette_15.rel
                                          [ palette_15 ]
C:/Users/luisc/AppData/Local/Temp/_gbsbuild/obj/palette_16.rel
                                          [ palette_16 ]
C:/Users/luisc/AppData/Local/Temp/_gbsbuild/obj/palette_17.rel
                                          [ palette_17 ]
C:/Users/luisc/AppData/Local/Temp/_gbsbuild/obj/palette_18.rel
                                          [ palette_18 ]
C:/Users/luisc/AppData/Local/Temp/_gbsbuild/obj/palette_19.rel
                                          [ palette_19 ]
C:/Users/luisc/AppData/Local/Temp/_gbsbuild/obj/palette_2.rel
                                          [ palette_2 ]
C:/Users/luisc/AppData/Local/Temp/_gbsbuild/obj/palette_20.rel
                                          [ palette_20 ]
C:/Users/luisc/AppData/Local/Temp/_gbsbuild/obj/palette_21.rel
                                          [ palette_21 ]
C:/Users/luisc/AppData/Local/Temp/_gbsbuild/obj/palette_22.rel
                                          [ palette_22 ]
C:/Users/luisc/AppData/Local/Temp/_gbsbuild/obj/palette_23.rel
                                          [ palette_23 ]
C:/Users/luisc/AppData/Local/Temp/_gbsbuild/obj/palette_24.rel
                                          [ palette_24 ]
C:/Users/luisc/AppData/Local/Temp/_gbsbuild/obj/palette_25.rel
                                          [ palette_25 ]
C:/Users/luisc/AppData/Local/Temp/_gbsbuild/obj/palette_26.rel
                                          [ palette_26 ]
C:/Users/luisc/AppData/Local/Temp/_gbsbuild/obj/palette_27.rel
                                          [ palette_27 ]
C:/Users/luisc/AppData/Local/Temp/_gbsbuild/obj/palette_28.rel
                                          [ palette_28 ]
C:/Users/luisc/AppData/Local/Temp/_gbsbuild/obj/palette_29.rel
                                          [ palette_29 ]
C:/Users/luisc/AppData/Local/Temp/_gbsbuild/obj/palette_3.rel
                                          [ palette_3 ]
C:/Users/luisc/AppData/Local/Temp/_gbsbuild/obj/palette_30.rel
                                          [ palette_30 ]
C:/Users/luisc/AppData/Local/Temp/_gbsbuild/obj/palette_31.rel
                                          [ palette_31 ]
C:/Users/luisc/AppData/Local/Temp/_gbsbuild/obj/palette_32.rel
                                          [ palette_32 ]
C:/Users/luisc/AppData/Local/Temp/_gbsbuild/obj/palette_33.rel
                                          [ palette_33 ]
C:/Users/luisc/AppData/Local/Temp/_gbsbuild/obj/palette_34.rel
                                          [ palette_34 ]
C:/Users/luisc/AppData/Local/Temp/_gbsbuild/obj/palette_35.rel
                                          [ palette_35 ]
C:/Users/luisc/AppData/Local/Temp/_gbsbuild/obj/palette_36.rel
                                          [ palette_36 ]
C:/Users/luisc/AppData/Local/Temp/_gbsbuild/obj/palette_37.rel
                                          [ palette_37 ]
C:/Users/luisc/AppData/Local/Temp/_gbsbuild/obj/palette_38.rel
                                          [ palette_38 ]
C:/Users/luisc/AppData/Local/Temp/_gbsbuild/obj/palette_39.rel
                                          [ palette_39 ]
C:/Users/luisc/AppData/Local/Temp/_gbsbuild/obj/palette_4.rel
                                          [ palette_4 ]
C:/Users/luisc/AppData/Local/Temp/_gbsbuild/obj/palette_5.rel
                                          [ palette_5 ]
C:/Users/luisc/AppData/Local/Temp/_gbsbuild/obj/palette_6.rel
                                          [ palette_6 ]
C:/Users/luisc/AppData/Local/Temp/_gbsbuild/obj/palette_7.rel
                                          [ palette_7 ]
C:/Users/luisc/AppData/Local/Temp/_gbsbuild/obj/palette_8.rel
                                          [ palette_8 ]
C:/Users/luisc/AppData/Local/Temp/_gbsbuild/obj/palette_9.rel
                                          [ palette_9 ]
C:/Users/luisc/AppData/Local/Temp/_gbsbuild/obj/scene_0_collisions.rel
                                          [ scene_0_collisions ]
C:/Users/luisc/AppData/Local/Temp/_gbsbuild/obj/scene_0.rel
                                          [ scene_0 ]
C:/Users/luisc/AppData/Local/Temp/_gbsbuild/obj/scene_1_collisions.rel
                                          [ scene_1_collisions ]
C:/Users/luisc/AppData/Local/Temp/_gbsbuild/obj/scene_1.rel
                                          [ scene_1 ]
C:/Users/luisc/AppData/Local/Temp/_gbsbuild/obj/scene_10_actors.rel
                                          [ scene_10_actors ]
C:/Users/luisc/AppData/Local/Temp/_gbsbuild/obj/scene_10_collisions.rel
                                          [ scene_10_collisions ]
C:/Users/luisc/AppData/Local/Temp/_gbsbuild/obj/scene_10_projectiles.rel
                                          [ scene_10_projectiles ]
C:/Users/luisc/AppData/Local/Temp/_gbsbuild/obj/scene_10_sprites.rel
                                          [ scene_10_sprites ]
C:/Users/luisc/AppData/Local/Temp/_gbsbuild/obj/scene_10_triggers.rel
                                          [ scene_10_triggers ]
C:/Users/luisc/AppData/Local/Temp/_gbsbuild/obj/scene_10.rel
                                          [ scene_10 ]
C:/Users/luisc/AppData/Local/Temp/_gbsbuild/obj/scene_11_collisions.rel
                                          [ scene_11_collisions ]
C:/Users/luisc/AppData/Local/Temp/_gbsbuild/obj/scene_11.rel
                                          [ scene_11 ]
C:/Users/luisc/AppData/Local/Temp/_gbsbuild/obj/scene_12_actors.rel
                                          [ scene_12_actors ]
C:/Users/luisc/AppData/Local/Temp/_gbsbuild/obj/scene_12_collisions.rel
                                          [ scene_12_collisions ]
C:/Users/luisc/AppData/Local/Temp/_gbsbuild/obj/scene_12_projectiles.rel
                                          [ scene_12_projectiles ]
C:/Users/luisc/AppData/Local/Temp/_gbsbuild/obj/scene_12_sprites.rel
                                          [ scene_12_sprites ]
C:/Users/luisc/AppData/Local/Temp/_gbsbuild/obj/scene_12_triggers.rel
                                          [ scene_12_triggers ]
C:/Users/luisc/AppData/Local/Temp/_gbsbuild/obj/scene_12.rel
                                          [ scene_12 ]
C:/Users/luisc/AppData/Local/Temp/_gbsbuild/obj/scene_13_collisions.rel
                                          [ scene_13_collisions ]
C:/Users/luisc/AppData/Local/Temp/_gbsbuild/obj/scene_13.rel
                                          [ scene_13 ]
C:/Users/luisc/AppData/Local/Temp/_gbsbuild/obj/scene_14_actors.rel
                                          [ scene_14_actors ]
C:/Users/luisc/AppData/Local/Temp/_gbsbuild/obj/scene_14_collisions.rel
                                          [ scene_14_collisions ]
C:/Users/luisc/AppData/Local/Temp/_gbsbuild/obj/scene_14_projectiles.rel
                                          [ scene_14_projectiles ]
C:/Users/luisc/AppData/Local/Temp/_gbsbuild/obj/scene_14_sprites.rel
                                          [ scene_14_sprites ]
C:/Users/luisc/AppData/Local/Temp/_gbsbuild/obj/scene_14_triggers.rel
                                          [ scene_14_triggers ]
C:/Users/luisc/AppData/Local/Temp/_gbsbuild/obj/scene_14.rel
                                          [ scene_14 ]
C:/Users/luisc/AppData/Local/Temp/_gbsbuild/obj/scene_15_collisions.rel
                                          [ scene_15_collisions ]
C:/Users/luisc/AppData/Local/Temp/_gbsbuild/obj/scene_15.rel
                                          [ scene_15 ]
C:/Users/luisc/AppData/Local/Temp/_gbsbuild/obj/scene_16_actors.rel
                                          [ scene_16_actors ]
C:/Users/luisc/AppData/Local/Temp/_gbsbuild/obj/scene_16_collisions.rel
                                          [ scene_16_collisions ]
C:/Users/luisc/AppData/Local/Temp/_gbsbuild/obj/scene_16_projectiles.rel
                                          [ scene_16_projectiles ]
C:/Users/luisc/AppData/Local/Temp/_gbsbuild/obj/scene_16_sprites.rel
                                          [ scene_16_sprites ]
C:/Users/luisc/AppData/Local/Temp/_gbsbuild/obj/scene_16_triggers.rel
                                          [ scene_16_triggers ]
C:/Users/luisc/AppData/Local/Temp/_gbsbuild/obj/scene_16.rel
                                          [ scene_16 ]
C:/Users/luisc/AppData/Local/Temp/_gbsbuild/obj/scene_17_collisions.rel
                                          [ scene_17_collisions ]
C:/Users/luisc/AppData/Local/Temp/_gbsbuild/obj/scene_17.rel
                                          [ scene_17 ]
C:/Users/luisc/AppData/Local/Temp/_gbsbuild/obj/scene_18_actors.rel
                                          [ scene_18_actors ]
C:/Users/luisc/AppData/Local/Temp/_gbsbuild/obj/scene_18_collisions.rel
                                          [ scene_18_collisions ]
C:/Users/luisc/AppData/Local/Temp/_gbsbuild/obj/scene_18_projectiles.rel
                                          [ scene_18_projectiles ]
C:/Users/luisc/AppData/Local/Temp/_gbsbuild/obj/scene_18_sprites.rel
                                          [ scene_18_sprites ]
C:/Users/luisc/AppData/Local/Temp/_gbsbuild/obj/scene_18_triggers.rel
                                          [ scene_18_triggers ]
C:/Users/luisc/AppData/Local/Temp/_gbsbuild/obj/scene_18.rel
                                          [ scene_18 ]
C:/Users/luisc/AppData/Local/Temp/_gbsbuild/obj/scene_19_collisions.rel
                                          [ scene_19_collisions ]
C:/Users/luisc/AppData/Local/Temp/_gbsbuild/obj/scene_19.rel
                                          [ scene_19 ]
C:/Users/luisc/AppData/Local/Temp/_gbsbuild/obj/scene_2_actors.rel
                                          [ scene_2_actors ]
C:/Users/luisc/AppData/Local/Temp/_gbsbuild/obj/scene_2_collisions.rel
                                          [ scene_2_collisions ]
C:/Users/luisc/AppData/Local/Temp/_gbsbuild/obj/scene_2_sprites.rel
                                          [ scene_2_sprites ]
C:/Users/luisc/AppData/Local/Temp/_gbsbuild/obj/scene_2.rel
                                          [ scene_2 ]
C:/Users/luisc/AppData/Local/Temp/_gbsbuild/obj/scene_20_actors.rel
                                          [ scene_20_actors ]
C:/Users/luisc/AppData/Local/Temp/_gbsbuild/obj/scene_20_collisions.rel
                                          [ scene_20_collisions ]
C:/Users/luisc/AppData/Local/Temp/_gbsbuild/obj/scene_20_projectiles.rel
                                          [ scene_20_projectiles ]
C:/Users/luisc/AppData/Local/Temp/_gbsbuild/obj/scene_20_sprites.rel
                                          [ scene_20_sprites ]
C:/Users/luisc/AppData/Local/Temp/_gbsbuild/obj/scene_20_triggers.rel
                                          [ scene_20_triggers ]
C:/Users/luisc/AppData/Local/Temp/_gbsbuild/obj/scene_20.rel
                                          [ scene_20 ]
C:/Users/luisc/AppData/Local/Temp/_gbsbuild/obj/scene_21_collisions.rel
                                          [ scene_21_collisions ]
C:/Users/luisc/AppData/Local/Temp/_gbsbuild/obj/scene_21.rel
                                          [ scene_21 ]
C:/Users/luisc/AppData/Local/Temp/_gbsbuild/obj/scene_22_actors.rel
                                          [ scene_22_actors ]
C:/Users/luisc/AppData/Local/Temp/_gbsbuild/obj/scene_22_collisions.rel
                                          [ scene_22_collisions ]
C:/Users/luisc/AppData/Local/Temp/_gbsbuild/obj/scene_22_projectiles.rel
                                          [ scene_22_projectiles ]
C:/Users/luisc/AppData/Local/Temp/_gbsbuild/obj/scene_22_sprites.rel
                                          [ scene_22_sprites ]
C:/Users/luisc/AppData/Local/Temp/_gbsbuild/obj/scene_22_triggers.rel
                                          [ scene_22_triggers ]
C:/Users/luisc/AppData/Local/Temp/_gbsbuild/obj/scene_22.rel
                                          [ scene_22 ]
C:/Users/luisc/AppData/Local/Temp/_gbsbuild/obj/scene_23_collisions.rel
                                          [ scene_23_collisions ]
C:/Users/luisc/AppData/Local/Temp/_gbsbuild/obj/scene_23.rel
                                          [ scene_23 ]
C:/Users/luisc/AppData/Local/Temp/_gbsbuild/obj/scene_24_actors.rel
                                          [ scene_24_actors ]
C:/Users/luisc/AppData/Local/Temp/_gbsbuild/obj/scene_24_collisions.rel
                                          [ scene_24_collisions ]
C:/Users/luisc/AppData/Local/Temp/_gbsbuild/obj/scene_24_projectiles.rel
                                          [ scene_24_projectiles ]
C:/Users/luisc/AppData/Local/Temp/_gbsbuild/obj/scene_24_sprites.rel
                                          [ scene_24_sprites ]
C:/Users/luisc/AppData/Local/Temp/_gbsbuild/obj/scene_24_triggers.rel
                                          [ scene_24_triggers ]
C:/Users/luisc/AppData/Local/Temp/_gbsbuild/obj/scene_24.rel
                                          [ scene_24 ]
C:/Users/luisc/AppData/Local/Temp/_gbsbuild/obj/scene_25_collisions.rel
                                          [ scene_25_collisions ]
C:/Users/luisc/AppData/Local/Temp/_gbsbuild/obj/scene_25.rel
                                          [ scene_25 ]
C:/Users/luisc/AppData/Local/Temp/_gbsbuild/obj/scene_26_actors.rel
                                          [ scene_26_actors ]
C:/Users/luisc/AppData/Local/Temp/_gbsbuild/obj/scene_26_collisions.rel
                                          [ scene_26_collisions ]
C:/Users/luisc/AppData/Local/Temp/_gbsbuild/obj/scene_26_projectiles.rel
                                          [ scene_26_projectiles ]
C:/Users/luisc/AppData/Local/Temp/_gbsbuild/obj/scene_26_sprites.rel
                                          [ scene_26_sprites ]
C:/Users/luisc/AppData/Local/Temp/_gbsbuild/obj/scene_26_triggers.rel
                                          [ scene_26_triggers ]
C:/Users/luisc/AppData/Local/Temp/_gbsbuild/obj/scene_26.rel
                                          [ scene_26 ]
C:/Users/luisc/AppData/Local/Temp/_gbsbuild/obj/scene_27_collisions.rel
                                          [ scene_27_collisions ]
C:/Users/luisc/AppData/Local/Temp/_gbsbuild/obj/scene_27.rel
                                          [ scene_27 ]
C:/Users/luisc/AppData/Local/Temp/_gbsbuild/obj/scene_28_actors.rel
                                          [ scene_28_actors ]
C:/Users/luisc/AppData/Local/Temp/_gbsbuild/obj/scene_28_collisions.rel
                                          [ scene_28_collisions ]
C:/Users/luisc/AppData/Local/Temp/_gbsbuild/obj/scene_28_projectiles.rel
                                          [ scene_28_projectiles ]
C:/Users/luisc/AppData/Local/Temp/_gbsbuild/obj/scene_28_sprites.rel
                                          [ scene_28_sprites ]
C:/Users/luisc/AppData/Local/Temp/_gbsbuild/obj/scene_28_triggers.rel
                                          [ scene_28_triggers ]
C:/Users/luisc/AppData/Local/Temp/_gbsbuild/obj/scene_28.rel
                                          [ scene_28 ]
C:/Users/luisc/AppData/Local/Temp/_gbsbuild/obj/scene_29_collisions.rel
                                          [ scene_29_collisions ]
C:/Users/luisc/AppData/Local/Temp/_gbsbuild/obj/scene_29.rel
                                          [ scene_29 ]
C:/Users/luisc/AppData/Local/Temp/_gbsbuild/obj/scene_3_actors.rel
                                          [ scene_3_actors ]
C:/Users/luisc/AppData/Local/Temp/_gbsbuild/obj/scene_3_collisions.rel
                                          [ scene_3_collisions ]
C:/Users/luisc/AppData/Local/Temp/_gbsbuild/obj/scene_3_sprites.rel
                                          [ scene_3_sprites ]
C:/Users/luisc/AppData/Local/Temp/_gbsbuild/obj/scene_3.rel
                                          [ scene_3 ]
C:/Users/luisc/AppData/Local/Temp/_gbsbuild/obj/scene_30_actors.rel
                                          [ scene_30_actors ]
C:/Users/luisc/AppData/Local/Temp/_gbsbuild/obj/scene_30_collisions.rel
                                          [ scene_30_collisions ]
C:/Users/luisc/AppData/Local/Temp/_gbsbuild/obj/scene_30_projectiles.rel
                                          [ scene_30_projectiles ]
C:/Users/luisc/AppData/Local/Temp/_gbsbuild/obj/scene_30_sprites.rel
                                          [ scene_30_sprites ]
C:/Users/luisc/AppData/Local/Temp/_gbsbuild/obj/scene_30_triggers.rel
                                          [ scene_30_triggers ]
C:/Users/luisc/AppData/Local/Temp/_gbsbuild/obj/scene_30.rel
                                          [ scene_30 ]
C:/Users/luisc/AppData/Local/Temp/_gbsbuild/obj/scene_31_collisions.rel
                                          [ scene_31_collisions ]
C:/Users/luisc/AppData/Local/Temp/_gbsbuild/obj/scene_31.rel
                                          [ scene_31 ]
C:/Users/luisc/AppData/Local/Temp/_gbsbuild/obj/scene_32_actors.rel
                                          [ scene_32_actors ]
C:/Users/luisc/AppData/Local/Temp/_gbsbuild/obj/scene_32_collisions.rel
                                          [ scene_32_collisions ]
C:/Users/luisc/AppData/Local/Temp/_gbsbuild/obj/scene_32_projectiles.rel
                                          [ scene_32_projectiles ]
C:/Users/luisc/AppData/Local/Temp/_gbsbuild/obj/scene_32_sprites.rel
                                          [ scene_32_sprites ]
C:/Users/luisc/AppData/Local/Temp/_gbsbuild/obj/scene_32_triggers.rel
                                          [ scene_32_triggers ]
C:/Users/luisc/AppData/Local/Temp/_gbsbuild/obj/scene_32.rel
                                          [ scene_32 ]
C:/Users/luisc/AppData/Local/Temp/_gbsbuild/obj/scene_33_collisions.rel
                                          [ scene_33_collisions ]
C:/Users/luisc/AppData/Local/Temp/_gbsbuild/obj/scene_33.rel
                                          [ scene_33 ]
C:/Users/luisc/AppData/Local/Temp/_gbsbuild/obj/scene_34_actors.rel
                                          [ scene_34_actors ]
C:/Users/luisc/AppData/Local/Temp/_gbsbuild/obj/scene_34_collisions.rel
                                          [ scene_34_collisions ]
C:/Users/luisc/AppData/Local/Temp/_gbsbuild/obj/scene_34_projectiles.rel
                                          [ scene_34_projectiles ]
C:/Users/luisc/AppData/Local/Temp/_gbsbuild/obj/scene_34_sprites.rel
                                          [ scene_34_sprites ]
C:/Users/luisc/AppData/Local/Temp/_gbsbuild/obj/scene_34_triggers.rel
                                          [ scene_34_triggers ]
C:/Users/luisc/AppData/Local/Temp/_gbsbuild/obj/scene_34.rel
                                          [ scene_34 ]
C:/Users/luisc/AppData/Local/Temp/_gbsbuild/obj/scene_35_collisions.rel
                                          [ scene_35_collisions ]
C:/Users/luisc/AppData/Local/Temp/_gbsbuild/obj/scene_35.rel
                                          [ scene_35 ]
C:/Users/luisc/AppData/Local/Temp/_gbsbuild/obj/scene_36_collisions.rel
                                          [ scene_36_collisions ]
C:/Users/luisc/AppData/Local/Temp/_gbsbuild/obj/scene_36.rel
                                          [ scene_36 ]
C:/Users/luisc/AppData/Local/Temp/_gbsbuild/obj/scene_37_collisions.rel
                                          [ scene_37_collisions ]
C:/Users/luisc/AppData/Local/Temp/_gbsbuild/obj/scene_37.rel
                                          [ scene_37 ]
C:/Users/luisc/AppData/Local/Temp/_gbsbuild/obj/scene_38_collisions.rel
                                          [ scene_38_collisions ]
C:/Users/luisc/AppData/Local/Temp/_gbsbuild/obj/scene_38.rel
                                          [ scene_38 ]
C:/Users/luisc/AppData/Local/Temp/_gbsbuild/obj/scene_39_actors.rel
                                          [ scene_39_actors ]
C:/Users/luisc/AppData/Local/Temp/_gbsbuild/obj/scene_39_collisions.rel
                                          [ scene_39_collisions ]
C:/Users/luisc/AppData/Local/Temp/_gbsbuild/obj/scene_39_sprites.rel
                                          [ scene_39_sprites ]
C:/Users/luisc/AppData/Local/Temp/_gbsbuild/obj/scene_39.rel
                                          [ scene_39 ]
C:/Users/luisc/AppData/Local/Temp/_gbsbuild/obj/scene_4_collisions.rel
                                          [ scene_4_collisions ]
C:/Users/luisc/AppData/Local/Temp/_gbsbuild/obj/scene_4.rel
                                          [ scene_4 ]
C:/Users/luisc/AppData/Local/Temp/_gbsbuild/obj/scene_40_actors.rel
                                          [ scene_40_actors ]
C:/Users/luisc/AppData/Local/Temp/_gbsbuild/obj/scene_40_collisions.rel
                                          [ scene_40_collisions ]
C:/Users/luisc/AppData/Local/Temp/_gbsbuild/obj/scene_40_sprites.rel
                                          [ scene_40_sprites ]
C:/Users/luisc/AppData/Local/Temp/_gbsbuild/obj/scene_40.rel
                                          [ scene_40 ]
C:/Users/luisc/AppData/Local/Temp/_gbsbuild/obj/scene_5_collisions.rel
                                          [ scene_5_collisions ]
C:/Users/luisc/AppData/Local/Temp/_gbsbuild/obj/scene_5.rel
                                          [ scene_5 ]
C:/Users/luisc/AppData/Local/Temp/_gbsbuild/obj/scene_6_actors.rel
                                          [ scene_6_actors ]
C:/Users/luisc/AppData/Local/Temp/_gbsbuild/obj/scene_6_collisions.rel
                                          [ scene_6_collisions ]
C:/Users/luisc/AppData/Local/Temp/_gbsbuild/obj/scene_6_sprites.rel
                                          [ scene_6_sprites ]
C:/Users/luisc/AppData/Local/Temp/_gbsbuild/obj/scene_6.rel
                                          [ scene_6 ]
C:/Users/luisc/AppData/Local/Temp/_gbsbuild/obj/scene_7_collisions.rel
                                          [ scene_7_collisions ]
C:/Users/luisc/AppData/Local/Temp/_gbsbuild/obj/scene_7.rel
                                          [ scene_7 ]
C:/Users/luisc/AppData/Local/Temp/_gbsbuild/obj/scene_8_actors.rel
                                          [ scene_8_actors ]
C:/Users/luisc/AppData/Local/Temp/_gbsbuild/obj/scene_8_collisions.rel
                                          [ scene_8_collisions ]
C:/Users/luisc/AppData/Local/Temp/_gbsbuild/obj/scene_8_projectiles.rel
                                          [ scene_8_projectiles ]
C:/Users/luisc/AppData/Local/Temp/_gbsbuild/obj/scene_8_sprites.rel
                                          [ scene_8_sprites ]
C:/Users/luisc/AppData/Local/Temp/_gbsbuild/obj/scene_8_triggers.rel
                                          [ scene_8_triggers ]
C:/Users/luisc/AppData/Local/Temp/_gbsbuild/obj/scene_8.rel
                                          [ scene_8 ]
C:/Users/luisc/AppData/Local/Temp/_gbsbuild/obj/scene_9_collisions.rel
                                          [ scene_9_collisions ]
C:/Users/luisc/AppData/Local/Temp/_gbsbuild/obj/scene_9.rel
                                          [ scene_9 ]
C:/Users/luisc/AppData/Local/Temp/_gbsbuild/obj/script_engine_init.rel
                                          [  ]
C:/Users/luisc/AppData/Local/Temp/_gbsbuild/obj/script_input_0.rel
                                          [ script_input_0 ]
C:/Users/luisc/AppData/Local/Temp/_gbsbuild/obj/script_input_1.rel
                                          [ script_input_1 ]
C:/Users/luisc/AppData/Local/Temp/_gbsbuild/obj/script_input_10.rel
                                          [ script_input_10 ]
C:/Users/luisc/AppData/Local/Temp/_gbsbuild/obj/script_input_11.rel
                                          [ script_input_11 ]
C:/Users/luisc/AppData/Local/Temp/_gbsbuild/obj/script_input_2.rel
                                          [ script_input_2 ]
C:/Users/luisc/AppData/Local/Temp/_gbsbuild/obj/script_input_3.rel
                                          [ script_input_3 ]
C:/Users/luisc/AppData/Local/Temp/_gbsbuild/obj/script_input_4.rel
                                          [ script_input_4 ]
C:/Users/luisc/AppData/Local/Temp/_gbsbuild/obj/script_input_5.rel
                                          [ script_input_5 ]
C:/Users/luisc/AppData/Local/Temp/_gbsbuild/obj/script_input_6.rel
                                          [ script_input_6 ]
C:/Users/luisc/AppData/Local/Temp/_gbsbuild/obj/script_input_7.rel
                                          [ script_input_7 ]
C:/Users/luisc/AppData/Local/Temp/_gbsbuild/obj/script_input_8.rel
                                          [ script_input_8 ]
C:/Users/luisc/AppData/Local/Temp/_gbsbuild/obj/script_input_9.rel
                                          [ script_input_9 ]
C:/Users/luisc/AppData/Local/Temp/_gbsbuild/obj/script_s0_init.rel
                                          [ script_s0_init ]
C:/Users/luisc/AppData/Local/Temp/_gbsbuild/obj/script_s1_init.rel
                                          [ script_s1_init ]
C:/Users/luisc/AppData/Local/Temp/_gbsbuild/obj/script_s10_init.rel
                                          [ script_s10_init ]
C:/Users/luisc/AppData/Local/Temp/_gbsbuild/obj/script_s10_p_hit1.rel
                                          [ script_s10_p_hit1 ]
C:/Users/luisc/AppData/Local/Temp/_gbsbuild/obj/script_s10a0_update.rel
                                          [ script_s10a0_update ]
C:/Users/luisc/AppData/Local/Temp/_gbsbuild/obj/script_s10a1_update.rel
                                          [ script_s10a1_update ]
C:/Users/luisc/AppData/Local/Temp/_gbsbuild/obj/script_s10a10_interact.rel
                                          [ script_s10a10_interact ]
C:/Users/luisc/AppData/Local/Temp/_gbsbuild/obj/script_s10a10_update.rel
                                          [ script_s10a10_update ]
C:/Users/luisc/AppData/Local/Temp/_gbsbuild/obj/script_s10a11_interact.rel
                                          [ script_s10a11_interact ]
C:/Users/luisc/AppData/Local/Temp/_gbsbuild/obj/script_s10a11_update.rel
                                          [ script_s10a11_update ]
C:/Users/luisc/AppData/Local/Temp/_gbsbuild/obj/script_s10a12_interact.rel
                                          [ script_s10a12_interact ]
C:/Users/luisc/AppData/Local/Temp/_gbsbuild/obj/script_s10a12_update.rel
                                          [ script_s10a12_update ]
C:/Users/luisc/AppData/Local/Temp/_gbsbuild/obj/script_s10a13_interact.rel
                                          [ script_s10a13_interact ]
C:/Users/luisc/AppData/Local/Temp/_gbsbuild/obj/script_s10a13_update.rel
                                          [ script_s10a13_update ]
C:/Users/luisc/AppData/Local/Temp/_gbsbuild/obj/script_s10a14_interact.rel
                                          [ script_s10a14_interact ]
C:/Users/luisc/AppData/Local/Temp/_gbsbuild/obj/script_s10a14_update.rel
                                          [ script_s10a14_update ]
C:/Users/luisc/AppData/Local/Temp/_gbsbuild/obj/script_s10a15_interact.rel
                                          [ script_s10a15_interact ]
C:/Users/luisc/AppData/Local/Temp/_gbsbuild/obj/script_s10a15_update.rel
                                          [ script_s10a15_update ]
C:/Users/luisc/AppData/Local/Temp/_gbsbuild/obj/script_s10a16_interact.rel
                                          [ script_s10a16_interact ]
C:/Users/luisc/AppData/Local/Temp/_gbsbuild/obj/script_s10a16_update.rel
                                          [ script_s10a16_update ]
C:/Users/luisc/AppData/Local/Temp/_gbsbuild/obj/script_s10a17_interact.rel
                                          [ script_s10a17_interact ]
C:/Users/luisc/AppData/Local/Temp/_gbsbuild/obj/script_s10a17_update.rel
                                          [ script_s10a17_update ]
C:/Users/luisc/AppData/Local/Temp/_gbsbuild/obj/script_s10a18_interact.rel
                                          [ script_s10a18_interact ]
C:/Users/luisc/AppData/Local/Temp/_gbsbuild/obj/script_s10a18_update.rel
                                          [ script_s10a18_update ]
C:/Users/luisc/AppData/Local/Temp/_gbsbuild/obj/script_s10a19_interact.rel
                                          [ script_s10a19_interact ]
C:/Users/luisc/AppData/Local/Temp/_gbsbuild/obj/script_s10a19_update.rel
                                          [ script_s10a19_update ]
C:/Users/luisc/AppData/Local/Temp/_gbsbuild/obj/script_s10a2_interact.rel
                                          [ script_s10a2_interact ]
C:/Users/luisc/AppData/Local/Temp/_gbsbuild/obj/script_s10a5_interact.rel
                                          [ script_s10a5_interact ]
C:/Users/luisc/AppData/Local/Temp/_gbsbuild/obj/script_s10a5_update.rel
                                          [ script_s10a5_update ]
C:/Users/luisc/AppData/Local/Temp/_gbsbuild/obj/script_s10a6_interact.rel
                                          [ script_s10a6_interact ]
C:/Users/luisc/AppData/Local/Temp/_gbsbuild/obj/script_s10a6_update.rel
                                          [ script_s10a6_update ]
C:/Users/luisc/AppData/Local/Temp/_gbsbuild/obj/script_s10a7_interact.rel
                                          [ script_s10a7_interact ]
C:/Users/luisc/AppData/Local/Temp/_gbsbuild/obj/script_s10a7_update.rel
                                          [ script_s10a7_update ]
C:/Users/luisc/AppData/Local/Temp/_gbsbuild/obj/script_s10a8_interact.rel
                                          [ script_s10a8_interact ]
C:/Users/luisc/AppData/Local/Temp/_gbsbuild/obj/script_s10a8_update.rel
                                          [ script_s10a8_update ]
C:/Users/luisc/AppData/Local/Temp/_gbsbuild/obj/script_s10a9_interact.rel
                                          [ script_s10a9_interact ]
C:/Users/luisc/AppData/Local/Temp/_gbsbuild/obj/script_s10a9_update.rel
                                          [ script_s10a9_update ]
C:/Users/luisc/AppData/Local/Temp/_gbsbuild/obj/script_s10t0_interact.rel
                                          [ script_s10t0_interact ]
C:/Users/luisc/AppData/Local/Temp/_gbsbuild/obj/script_s11_init.rel
                                          [ script_s11_init ]
C:/Users/luisc/AppData/Local/Temp/_gbsbuild/obj/script_s12_init.rel
                                          [ script_s12_init ]
C:/Users/luisc/AppData/Local/Temp/_gbsbuild/obj/script_s12_p_hit1.rel
                                          [ script_s12_p_hit1 ]
C:/Users/luisc/AppData/Local/Temp/_gbsbuild/obj/script_s12a0_update.rel
                                          [ script_s12a0_update ]
C:/Users/luisc/AppData/Local/Temp/_gbsbuild/obj/script_s12a10_interact.rel
                                          [ script_s12a10_interact ]
C:/Users/luisc/AppData/Local/Temp/_gbsbuild/obj/script_s12a10_update.rel
                                          [ script_s12a10_update ]
C:/Users/luisc/AppData/Local/Temp/_gbsbuild/obj/script_s12a11_interact.rel
                                          [ script_s12a11_interact ]
C:/Users/luisc/AppData/Local/Temp/_gbsbuild/obj/script_s12a11_update.rel
                                          [ script_s12a11_update ]
C:/Users/luisc/AppData/Local/Temp/_gbsbuild/obj/script_s12a12_interact.rel
                                          [ script_s12a12_interact ]
C:/Users/luisc/AppData/Local/Temp/_gbsbuild/obj/script_s12a12_update.rel
                                          [ script_s12a12_update ]
C:/Users/luisc/AppData/Local/Temp/_gbsbuild/obj/script_s12a13_interact.rel
                                          [ script_s12a13_interact ]
C:/Users/luisc/AppData/Local/Temp/_gbsbuild/obj/script_s12a13_update.rel
                                          [ script_s12a13_update ]
C:/Users/luisc/AppData/Local/Temp/_gbsbuild/obj/script_s12a14_interact.rel
                                          [ script_s12a14_interact ]
C:/Users/luisc/AppData/Local/Temp/_gbsbuild/obj/script_s12a14_update.rel
                                          [ script_s12a14_update ]
C:/Users/luisc/AppData/Local/Temp/_gbsbuild/obj/script_s12a15_interact.rel
                                          [ script_s12a15_interact ]
C:/Users/luisc/AppData/Local/Temp/_gbsbuild/obj/script_s12a15_update.rel
                                          [ script_s12a15_update ]
C:/Users/luisc/AppData/Local/Temp/_gbsbuild/obj/script_s12a16_interact.rel
                                          [ script_s12a16_interact ]
C:/Users/luisc/AppData/Local/Temp/_gbsbuild/obj/script_s12a16_update.rel
                                          [ script_s12a16_update ]
C:/Users/luisc/AppData/Local/Temp/_gbsbuild/obj/script_s12a17_interact.rel
                                          [ script_s12a17_interact ]
C:/Users/luisc/AppData/Local/Temp/_gbsbuild/obj/script_s12a18_interact.rel
                                          [ script_s12a18_interact ]
C:/Users/luisc/AppData/Local/Temp/_gbsbuild/obj/script_s12a18_update.rel
                                          [ script_s12a18_update ]
C:/Users/luisc/AppData/Local/Temp/_gbsbuild/obj/script_s12a19_interact.rel
                                          [ script_s12a19_interact ]
C:/Users/luisc/AppData/Local/Temp/_gbsbuild/obj/script_s12a4_interact.rel
                                          [ script_s12a4_interact ]
C:/Users/luisc/AppData/Local/Temp/_gbsbuild/obj/script_s12a4_update.rel
                                          [ script_s12a4_update ]
C:/Users/luisc/AppData/Local/Temp/_gbsbuild/obj/script_s12a5_interact.rel
                                          [ script_s12a5_interact ]
C:/Users/luisc/AppData/Local/Temp/_gbsbuild/obj/script_s12a5_update.rel
                                          [ script_s12a5_update ]
C:/Users/luisc/AppData/Local/Temp/_gbsbuild/obj/script_s12a6_interact.rel
                                          [ script_s12a6_interact ]
C:/Users/luisc/AppData/Local/Temp/_gbsbuild/obj/script_s12a6_update.rel
                                          [ script_s12a6_update ]
C:/Users/luisc/AppData/Local/Temp/_gbsbuild/obj/script_s12a7_interact.rel
                                          [ script_s12a7_interact ]
C:/Users/luisc/AppData/Local/Temp/_gbsbuild/obj/script_s12a7_update.rel
                                          [ script_s12a7_update ]
C:/Users/luisc/AppData/Local/Temp/_gbsbuild/obj/script_s12a8_interact.rel
                                          [ script_s12a8_interact ]
C:/Users/luisc/AppData/Local/Temp/_gbsbuild/obj/script_s12a8_update.rel
                                          [ script_s12a8_update ]
C:/Users/luisc/AppData/Local/Temp/_gbsbuild/obj/script_s12a9_interact.rel
                                          [ script_s12a9_interact ]
C:/Users/luisc/AppData/Local/Temp/_gbsbuild/obj/script_s12a9_update.rel
                                          [ script_s12a9_update ]
C:/Users/luisc/AppData/Local/Temp/_gbsbuild/obj/script_s12t0_interact.rel
                                          [ script_s12t0_interact ]
C:/Users/luisc/AppData/Local/Temp/_gbsbuild/obj/script_s12t1_interact.rel
                                          [ script_s12t1_interact ]
C:/Users/luisc/AppData/Local/Temp/_gbsbuild/obj/script_s13_init.rel
                                          [ script_s13_init ]
C:/Users/luisc/AppData/Local/Temp/_gbsbuild/obj/script_s14_init.rel
                                          [ script_s14_init ]
C:/Users/luisc/AppData/Local/Temp/_gbsbuild/obj/script_s14_p_hit1.rel
                                          [ script_s14_p_hit1 ]
C:/Users/luisc/AppData/Local/Temp/_gbsbuild/obj/script_s14a0_update.rel
                                          [ script_s14a0_update ]
C:/Users/luisc/AppData/Local/Temp/_gbsbuild/obj/script_s14a10_interact.rel
                                          [ script_s14a10_interact ]
C:/Users/luisc/AppData/Local/Temp/_gbsbuild/obj/script_s14a10_update.rel
                                          [ script_s14a10_update ]
C:/Users/luisc/AppData/Local/Temp/_gbsbuild/obj/script_s14a11_interact.rel
                                          [ script_s14a11_interact ]
C:/Users/luisc/AppData/Local/Temp/_gbsbuild/obj/script_s14a11_update.rel
                                          [ script_s14a11_update ]
C:/Users/luisc/AppData/Local/Temp/_gbsbuild/obj/script_s14a12_interact.rel
                                          [ script_s14a12_interact ]
C:/Users/luisc/AppData/Local/Temp/_gbsbuild/obj/script_s14a12_update.rel
                                          [ script_s14a12_update ]
C:/Users/luisc/AppData/Local/Temp/_gbsbuild/obj/script_s14a13_interact.rel
                                          [ script_s14a13_interact ]
C:/Users/luisc/AppData/Local/Temp/_gbsbuild/obj/script_s14a13_update.rel
                                          [ script_s14a13_update ]
C:/Users/luisc/AppData/Local/Temp/_gbsbuild/obj/script_s14a14_interact.rel
                                          [ script_s14a14_interact ]
C:/Users/luisc/AppData/Local/Temp/_gbsbuild/obj/script_s14a14_update.rel
                                          [ script_s14a14_update ]
C:/Users/luisc/AppData/Local/Temp/_gbsbuild/obj/script_s14a15_interact.rel
                                          [ script_s14a15_interact ]
C:/Users/luisc/AppData/Local/Temp/_gbsbuild/obj/script_s14a15_update.rel
                                          [ script_s14a15_update ]
C:/Users/luisc/AppData/Local/Temp/_gbsbuild/obj/script_s14a16_interact.rel
                                          [ script_s14a16_interact ]
C:/Users/luisc/AppData/Local/Temp/_gbsbuild/obj/script_s14a16_update.rel
                                          [ script_s14a16_update ]
C:/Users/luisc/AppData/Local/Temp/_gbsbuild/obj/script_s14a17_interact.rel
                                          [ script_s14a17_interact ]
C:/Users/luisc/AppData/Local/Temp/_gbsbuild/obj/script_s14a17_update.rel
                                          [ script_s14a17_update ]
C:/Users/luisc/AppData/Local/Temp/_gbsbuild/obj/script_s14a18_interact.rel
                                          [ script_s14a18_interact ]
C:/Users/luisc/AppData/Local/Temp/_gbsbuild/obj/script_s14a18_update.rel
                                          [ script_s14a18_update ]
C:/Users/luisc/AppData/Local/Temp/_gbsbuild/obj/script_s14a19_interact.rel
                                          [ script_s14a19_interact ]
C:/Users/luisc/AppData/Local/Temp/_gbsbuild/obj/script_s14a4_interact.rel
                                          [ script_s14a4_interact ]
C:/Users/luisc/AppData/Local/Temp/_gbsbuild/obj/script_s14a4_update.rel
                                          [ script_s14a4_update ]
C:/Users/luisc/AppData/Local/Temp/_gbsbuild/obj/script_s14a5_interact.rel
                                          [ script_s14a5_interact ]
C:/Users/luisc/AppData/Local/Temp/_gbsbuild/obj/script_s14a5_update.rel
                                          [ script_s14a5_update ]
C:/Users/luisc/AppData/Local/Temp/_gbsbuild/obj/script_s14a6_interact.rel
                                          [ script_s14a6_interact ]
C:/Users/luisc/AppData/Local/Temp/_gbsbuild/obj/script_s14a6_update.rel
                                          [ script_s14a6_update ]
C:/Users/luisc/AppData/Local/Temp/_gbsbuild/obj/script_s14a7_interact.rel
                                          [ script_s14a7_interact ]
C:/Users/luisc/AppData/Local/Temp/_gbsbuild/obj/script_s14a7_update.rel
                                          [ script_s14a7_update ]
C:/Users/luisc/AppData/Local/Temp/_gbsbuild/obj/script_s14a8_interact.rel
                                          [ script_s14a8_interact ]
C:/Users/luisc/AppData/Local/Temp/_gbsbuild/obj/script_s14a8_update.rel
                                          [ script_s14a8_update ]
C:/Users/luisc/AppData/Local/Temp/_gbsbuild/obj/script_s14a9_interact.rel
                                          [ script_s14a9_interact ]
C:/Users/luisc/AppData/Local/Temp/_gbsbuild/obj/script_s14a9_update.rel
                                          [ script_s14a9_update ]
C:/Users/luisc/AppData/Local/Temp/_gbsbuild/obj/script_s14t0_interact.rel
                                          [ script_s14t0_interact ]
C:/Users/luisc/AppData/Local/Temp/_gbsbuild/obj/script_s14t1_interact.rel
                                          [ script_s14t1_interact ]
C:/Users/luisc/AppData/Local/Temp/_gbsbuild/obj/script_s15_init.rel
                                          [ script_s15_init ]
C:/Users/luisc/AppData/Local/Temp/_gbsbuild/obj/script_s16_init.rel
                                          [ script_s16_init ]
C:/Users/luisc/AppData/Local/Temp/_gbsbuild/obj/script_s16_p_hit1.rel
                                          [ script_s16_p_hit1 ]
C:/Users/luisc/AppData/Local/Temp/_gbsbuild/obj/script_s16a0_update.rel
                                          [ script_s16a0_update ]
C:/Users/luisc/AppData/Local/Temp/_gbsbuild/obj/script_s16a10_interact.rel
                                          [ script_s16a10_interact ]
C:/Users/luisc/AppData/Local/Temp/_gbsbuild/obj/script_s16a10_update.rel
                                          [ script_s16a10_update ]
C:/Users/luisc/AppData/Local/Temp/_gbsbuild/obj/script_s16a11_interact.rel
                                          [ script_s16a11_interact ]
C:/Users/luisc/AppData/Local/Temp/_gbsbuild/obj/script_s16a11_update.rel
                                          [ script_s16a11_update ]
C:/Users/luisc/AppData/Local/Temp/_gbsbuild/obj/script_s16a12_interact.rel
                                          [ script_s16a12_interact ]
C:/Users/luisc/AppData/Local/Temp/_gbsbuild/obj/script_s16a12_update.rel
                                          [ script_s16a12_update ]
C:/Users/luisc/AppData/Local/Temp/_gbsbuild/obj/script_s16a13_interact.rel
                                          [ script_s16a13_interact ]
C:/Users/luisc/AppData/Local/Temp/_gbsbuild/obj/script_s16a13_update.rel
                                          [ script_s16a13_update ]
C:/Users/luisc/AppData/Local/Temp/_gbsbuild/obj/script_s16a14_interact.rel
                                          [ script_s16a14_interact ]
C:/Users/luisc/AppData/Local/Temp/_gbsbuild/obj/script_s16a14_update.rel
                                          [ script_s16a14_update ]
C:/Users/luisc/AppData/Local/Temp/_gbsbuild/obj/script_s16a15_interact.rel
                                          [ script_s16a15_interact ]
C:/Users/luisc/AppData/Local/Temp/_gbsbuild/obj/script_s16a15_update.rel
                                          [ script_s16a15_update ]
C:/Users/luisc/AppData/Local/Temp/_gbsbuild/obj/script_s16a16_interact.rel
                                          [ script_s16a16_interact ]
C:/Users/luisc/AppData/Local/Temp/_gbsbuild/obj/script_s16a16_update.rel
                                          [ script_s16a16_update ]
C:/Users/luisc/AppData/Local/Temp/_gbsbuild/obj/script_s16a17_interact.rel
                                          [ script_s16a17_interact ]
C:/Users/luisc/AppData/Local/Temp/_gbsbuild/obj/script_s16a17_update.rel
                                          [ script_s16a17_update ]
C:/Users/luisc/AppData/Local/Temp/_gbsbuild/obj/script_s16a18_interact.rel
                                          [ script_s16a18_interact ]
C:/Users/luisc/AppData/Local/Temp/_gbsbuild/obj/script_s16a18_update.rel
                                          [ script_s16a18_update ]
C:/Users/luisc/AppData/Local/Temp/_gbsbuild/obj/script_s16a19_interact.rel
                                          [ script_s16a19_interact ]
C:/Users/luisc/AppData/Local/Temp/_gbsbuild/obj/script_s16a4_interact.rel
                                          [ script_s16a4_interact ]
C:/Users/luisc/AppData/Local/Temp/_gbsbuild/obj/script_s16a4_update.rel
                                          [ script_s16a4_update ]
C:/Users/luisc/AppData/Local/Temp/_gbsbuild/obj/script_s16a5_interact.rel
                                          [ script_s16a5_interact ]
C:/Users/luisc/AppData/Local/Temp/_gbsbuild/obj/script_s16a5_update.rel
                                          [ script_s16a5_update ]
C:/Users/luisc/AppData/Local/Temp/_gbsbuild/obj/script_s16a6_interact.rel
                                          [ script_s16a6_interact ]
C:/Users/luisc/AppData/Local/Temp/_gbsbuild/obj/script_s16a6_update.rel
                                          [ script_s16a6_update ]
C:/Users/luisc/AppData/Local/Temp/_gbsbuild/obj/script_s16a7_interact.rel
                                          [ script_s16a7_interact ]
C:/Users/luisc/AppData/Local/Temp/_gbsbuild/obj/script_s16a7_update.rel
                                          [ script_s16a7_update ]
C:/Users/luisc/AppData/Local/Temp/_gbsbuild/obj/script_s16a8_interact.rel
                                          [ script_s16a8_interact ]
C:/Users/luisc/AppData/Local/Temp/_gbsbuild/obj/script_s16a8_update.rel
                                          [ script_s16a8_update ]
C:/Users/luisc/AppData/Local/Temp/_gbsbuild/obj/script_s16a9_interact.rel
                                          [ script_s16a9_interact ]
C:/Users/luisc/AppData/Local/Temp/_gbsbuild/obj/script_s16a9_update.rel
                                          [ script_s16a9_update ]
C:/Users/luisc/AppData/Local/Temp/_gbsbuild/obj/script_s16t0_interact.rel
                                          [ script_s16t0_interact ]
C:/Users/luisc/AppData/Local/Temp/_gbsbuild/obj/script_s17_init.rel
                                          [ script_s17_init ]
C:/Users/luisc/AppData/Local/Temp/_gbsbuild/obj/script_s18_init.rel
                                          [ script_s18_init ]
C:/Users/luisc/AppData/Local/Temp/_gbsbuild/obj/script_s18_p_hit1.rel
                                          [ script_s18_p_hit1 ]
C:/Users/luisc/AppData/Local/Temp/_gbsbuild/obj/script_s18a0_update.rel
                                          [ script_s18a0_update ]
C:/Users/luisc/AppData/Local/Temp/_gbsbuild/obj/script_s18a10_interact.rel
                                          [ script_s18a10_interact ]
C:/Users/luisc/AppData/Local/Temp/_gbsbuild/obj/script_s18a10_update.rel
                                          [ script_s18a10_update ]
C:/Users/luisc/AppData/Local/Temp/_gbsbuild/obj/script_s18a11_interact.rel
                                          [ script_s18a11_interact ]
C:/Users/luisc/AppData/Local/Temp/_gbsbuild/obj/script_s18a11_update.rel
                                          [ script_s18a11_update ]
C:/Users/luisc/AppData/Local/Temp/_gbsbuild/obj/script_s18a12_interact.rel
                                          [ script_s18a12_interact ]
C:/Users/luisc/AppData/Local/Temp/_gbsbuild/obj/script_s18a12_update.rel
                                          [ script_s18a12_update ]
C:/Users/luisc/AppData/Local/Temp/_gbsbuild/obj/script_s18a13_interact.rel
                                          [ script_s18a13_interact ]
C:/Users/luisc/AppData/Local/Temp/_gbsbuild/obj/script_s18a13_update.rel
                                          [ script_s18a13_update ]
C:/Users/luisc/AppData/Local/Temp/_gbsbuild/obj/script_s18a14_interact.rel
                                          [ script_s18a14_interact ]
C:/Users/luisc/AppData/Local/Temp/_gbsbuild/obj/script_s18a14_update.rel
                                          [ script_s18a14_update ]
C:/Users/luisc/AppData/Local/Temp/_gbsbuild/obj/script_s18a15_interact.rel
                                          [ script_s18a15_interact ]
C:/Users/luisc/AppData/Local/Temp/_gbsbuild/obj/script_s18a15_update.rel
                                          [ script_s18a15_update ]
C:/Users/luisc/AppData/Local/Temp/_gbsbuild/obj/script_s18a16_interact.rel
                                          [ script_s18a16_interact ]
C:/Users/luisc/AppData/Local/Temp/_gbsbuild/obj/script_s18a16_update.rel
                                          [ script_s18a16_update ]
C:/Users/luisc/AppData/Local/Temp/_gbsbuild/obj/script_s18a17_interact.rel
                                          [ script_s18a17_interact ]
C:/Users/luisc/AppData/Local/Temp/_gbsbuild/obj/script_s18a17_update.rel
                                          [ script_s18a17_update ]
C:/Users/luisc/AppData/Local/Temp/_gbsbuild/obj/script_s18a18_interact.rel
                                          [ script_s18a18_interact ]
C:/Users/luisc/AppData/Local/Temp/_gbsbuild/obj/script_s18a18_update.rel
                                          [ script_s18a18_update ]
C:/Users/luisc/AppData/Local/Temp/_gbsbuild/obj/script_s18a19_interact.rel
                                          [ script_s18a19_interact ]
C:/Users/luisc/AppData/Local/Temp/_gbsbuild/obj/script_s18a4_interact.rel
                                          [ script_s18a4_interact ]
C:/Users/luisc/AppData/Local/Temp/_gbsbuild/obj/script_s18a4_update.rel
                                          [ script_s18a4_update ]
C:/Users/luisc/AppData/Local/Temp/_gbsbuild/obj/script_s18a5_interact.rel
                                          [ script_s18a5_interact ]
C:/Users/luisc/AppData/Local/Temp/_gbsbuild/obj/script_s18a5_update.rel
                                          [ script_s18a5_update ]
C:/Users/luisc/AppData/Local/Temp/_gbsbuild/obj/script_s18a6_interact.rel
                                          [ script_s18a6_interact ]
C:/Users/luisc/AppData/Local/Temp/_gbsbuild/obj/script_s18a6_update.rel
                                          [ script_s18a6_update ]
C:/Users/luisc/AppData/Local/Temp/_gbsbuild/obj/script_s18a7_interact.rel
                                          [ script_s18a7_interact ]
C:/Users/luisc/AppData/Local/Temp/_gbsbuild/obj/script_s18a7_update.rel
                                          [ script_s18a7_update ]
C:/Users/luisc/AppData/Local/Temp/_gbsbuild/obj/script_s18a8_interact.rel
                                          [ script_s18a8_interact ]
C:/Users/luisc/AppData/Local/Temp/_gbsbuild/obj/script_s18a8_update.rel
                                          [ script_s18a8_update ]
C:/Users/luisc/AppData/Local/Temp/_gbsbuild/obj/script_s18a9_interact.rel
                                          [ script_s18a9_interact ]
C:/Users/luisc/AppData/Local/Temp/_gbsbuild/obj/script_s18a9_update.rel
                                          [ script_s18a9_update ]
C:/Users/luisc/AppData/Local/Temp/_gbsbuild/obj/script_s18t0_interact.rel
                                          [ script_s18t0_interact ]
C:/Users/luisc/AppData/Local/Temp/_gbsbuild/obj/script_s19_init.rel
                                          [ script_s19_init ]
C:/Users/luisc/AppData/Local/Temp/_gbsbuild/obj/script_s2_init.rel
                                          [ script_s2_init ]
C:/Users/luisc/AppData/Local/Temp/_gbsbuild/obj/script_s20_init.rel
                                          [ script_s20_init ]
C:/Users/luisc/AppData/Local/Temp/_gbsbuild/obj/script_s20_p_hit1.rel
                                          [ script_s20_p_hit1 ]
C:/Users/luisc/AppData/Local/Temp/_gbsbuild/obj/script_s20a0_update.rel
                                          [ script_s20a0_update ]
C:/Users/luisc/AppData/Local/Temp/_gbsbuild/obj/script_s20a3_interact.rel
                                          [ script_s20a3_interact ]
C:/Users/luisc/AppData/Local/Temp/_gbsbuild/obj/script_s20a3_update.rel
                                          [ script_s20a3_update ]
C:/Users/luisc/AppData/Local/Temp/_gbsbuild/obj/script_s20a5_interact.rel
                                          [ script_s20a5_interact ]
C:/Users/luisc/AppData/Local/Temp/_gbsbuild/obj/script_s20t0_interact.rel
                                          [ script_s20t0_interact ]
C:/Users/luisc/AppData/Local/Temp/_gbsbuild/obj/script_s21_init.rel
                                          [ script_s21_init ]
C:/Users/luisc/AppData/Local/Temp/_gbsbuild/obj/script_s22_init.rel
                                          [ script_s22_init ]
C:/Users/luisc/AppData/Local/Temp/_gbsbuild/obj/script_s22_p_hit1.rel
                                          [ script_s22_p_hit1 ]
C:/Users/luisc/AppData/Local/Temp/_gbsbuild/obj/script_s22a0_update.rel
                                          [ script_s22a0_update ]
C:/Users/luisc/AppData/Local/Temp/_gbsbuild/obj/script_s22a10_interact.rel
                                          [ script_s22a10_interact ]
C:/Users/luisc/AppData/Local/Temp/_gbsbuild/obj/script_s22a10_update.rel
                                          [ script_s22a10_update ]
C:/Users/luisc/AppData/Local/Temp/_gbsbuild/obj/script_s22a12_interact.rel
                                          [ script_s22a12_interact ]
C:/Users/luisc/AppData/Local/Temp/_gbsbuild/obj/script_s22a13_interact.rel
                                          [ script_s22a13_interact ]
C:/Users/luisc/AppData/Local/Temp/_gbsbuild/obj/script_s22a13_update.rel
                                          [ script_s22a13_update ]
C:/Users/luisc/AppData/Local/Temp/_gbsbuild/obj/script_s22a14_interact.rel
                                          [ script_s22a14_interact ]
C:/Users/luisc/AppData/Local/Temp/_gbsbuild/obj/script_s22a14_update.rel
                                          [ script_s22a14_update ]
C:/Users/luisc/AppData/Local/Temp/_gbsbuild/obj/script_s22a15_interact.rel
                                          [ script_s22a15_interact ]
C:/Users/luisc/AppData/Local/Temp/_gbsbuild/obj/script_s22a15_update.rel
                                          [ script_s22a15_update ]
C:/Users/luisc/AppData/Local/Temp/_gbsbuild/obj/script_s22a16_interact.rel
                                          [ script_s22a16_interact ]
C:/Users/luisc/AppData/Local/Temp/_gbsbuild/obj/script_s22a16_update.rel
                                          [ script_s22a16_update ]
C:/Users/luisc/AppData/Local/Temp/_gbsbuild/obj/script_s22a17_interact.rel
                                          [ script_s22a17_interact ]
C:/Users/luisc/AppData/Local/Temp/_gbsbuild/obj/script_s22a17_update.rel
                                          [ script_s22a17_update ]
C:/Users/luisc/AppData/Local/Temp/_gbsbuild/obj/script_s22a18_interact.rel
                                          [ script_s22a18_interact ]
C:/Users/luisc/AppData/Local/Temp/_gbsbuild/obj/script_s22a18_update.rel
                                          [ script_s22a18_update ]
C:/Users/luisc/AppData/Local/Temp/_gbsbuild/obj/script_s22a19_interact.rel
                                          [ script_s22a19_interact ]
C:/Users/luisc/AppData/Local/Temp/_gbsbuild/obj/script_s22a4_interact.rel
                                          [ script_s22a4_interact ]
C:/Users/luisc/AppData/Local/Temp/_gbsbuild/obj/script_s22a4_update.rel
                                          [ script_s22a4_update ]
C:/Users/luisc/AppData/Local/Temp/_gbsbuild/obj/script_s22a5_interact.rel
                                          [ script_s22a5_interact ]
C:/Users/luisc/AppData/Local/Temp/_gbsbuild/obj/script_s22a5_update.rel
                                          [ script_s22a5_update ]
C:/Users/luisc/AppData/Local/Temp/_gbsbuild/obj/script_s22a6_interact.rel
                                          [ script_s22a6_interact ]
C:/Users/luisc/AppData/Local/Temp/_gbsbuild/obj/script_s22a6_update.rel
                                          [ script_s22a6_update ]
C:/Users/luisc/AppData/Local/Temp/_gbsbuild/obj/script_s22a7_interact.rel
                                          [ script_s22a7_interact ]
C:/Users/luisc/AppData/Local/Temp/_gbsbuild/obj/script_s22a7_update.rel
                                          [ script_s22a7_update ]
C:/Users/luisc/AppData/Local/Temp/_gbsbuild/obj/script_s22a8_interact.rel
                                          [ script_s22a8_interact ]
C:/Users/luisc/AppData/Local/Temp/_gbsbuild/obj/script_s22a8_update.rel
                                          [ script_s22a8_update ]
C:/Users/luisc/AppData/Local/Temp/_gbsbuild/obj/script_s22a9_interact.rel
                                          [ script_s22a9_interact ]
C:/Users/luisc/AppData/Local/Temp/_gbsbuild/obj/script_s22a9_update.rel
                                          [ script_s22a9_update ]
C:/Users/luisc/AppData/Local/Temp/_gbsbuild/obj/script_s22t0_interact.rel
                                          [ script_s22t0_interact ]
C:/Users/luisc/AppData/Local/Temp/_gbsbuild/obj/script_s22t1_interact.rel
                                          [ script_s22t1_interact ]
C:/Users/luisc/AppData/Local/Temp/_gbsbuild/obj/script_s23_init.rel
                                          [ script_s23_init ]
C:/Users/luisc/AppData/Local/Temp/_gbsbuild/obj/script_s24_init.rel
                                          [ script_s24_init ]
C:/Users/luisc/AppData/Local/Temp/_gbsbuild/obj/script_s24a0_update.rel
                                          [ script_s24a0_update ]
C:/Users/luisc/AppData/Local/Temp/_gbsbuild/obj/script_s24t0_interact.rel
                                          [ script_s24t0_interact ]
C:/Users/luisc/AppData/Local/Temp/_gbsbuild/obj/script_s25_init.rel
                                          [ script_s25_init ]
C:/Users/luisc/AppData/Local/Temp/_gbsbuild/obj/script_s26_init.rel
                                          [ script_s26_init ]
C:/Users/luisc/AppData/Local/Temp/_gbsbuild/obj/script_s26_p_hit1.rel
                                          [ script_s26_p_hit1 ]
C:/Users/luisc/AppData/Local/Temp/_gbsbuild/obj/script_s26a0_update.rel
                                          [ script_s26a0_update ]
C:/Users/luisc/AppData/Local/Temp/_gbsbuild/obj/script_s26a10_interact.rel
                                          [ script_s26a10_interact ]
C:/Users/luisc/AppData/Local/Temp/_gbsbuild/obj/script_s26a10_update.rel
                                          [ script_s26a10_update ]
C:/Users/luisc/AppData/Local/Temp/_gbsbuild/obj/script_s26a11_interact.rel
                                          [ script_s26a11_interact ]
C:/Users/luisc/AppData/Local/Temp/_gbsbuild/obj/script_s26a11_update.rel
                                          [ script_s26a11_update ]
C:/Users/luisc/AppData/Local/Temp/_gbsbuild/obj/script_s26a12_interact.rel
                                          [ script_s26a12_interact ]
C:/Users/luisc/AppData/Local/Temp/_gbsbuild/obj/script_s26a12_update.rel
                                          [ script_s26a12_update ]
C:/Users/luisc/AppData/Local/Temp/_gbsbuild/obj/script_s26a13_interact.rel
                                          [ script_s26a13_interact ]
C:/Users/luisc/AppData/Local/Temp/_gbsbuild/obj/script_s26a13_update.rel
                                          [ script_s26a13_update ]
C:/Users/luisc/AppData/Local/Temp/_gbsbuild/obj/script_s26a14_interact.rel
                                          [ script_s26a14_interact ]
C:/Users/luisc/AppData/Local/Temp/_gbsbuild/obj/script_s26a15_interact.rel
                                          [ script_s26a15_interact ]
C:/Users/luisc/AppData/Local/Temp/_gbsbuild/obj/script_s26a15_update.rel
                                          [ script_s26a15_update ]
C:/Users/luisc/AppData/Local/Temp/_gbsbuild/obj/script_s26a16_interact.rel
                                          [ script_s26a16_interact ]
C:/Users/luisc/AppData/Local/Temp/_gbsbuild/obj/script_s26a16_update.rel
                                          [ script_s26a16_update ]
C:/Users/luisc/AppData/Local/Temp/_gbsbuild/obj/script_s26a17_interact.rel
                                          [ script_s26a17_interact ]
C:/Users/luisc/AppData/Local/Temp/_gbsbuild/obj/script_s26a17_update.rel
                                          [ script_s26a17_update ]
C:/Users/luisc/AppData/Local/Temp/_gbsbuild/obj/script_s26a18_interact.rel
                                          [ script_s26a18_interact ]
C:/Users/luisc/AppData/Local/Temp/_gbsbuild/obj/script_s26a18_update.rel
                                          [ script_s26a18_update ]
C:/Users/luisc/AppData/Local/Temp/_gbsbuild/obj/script_s26a19_interact.rel
                                          [ script_s26a19_interact ]
C:/Users/luisc/AppData/Local/Temp/_gbsbuild/obj/script_s26a19_update.rel
                                          [ script_s26a19_update ]
C:/Users/luisc/AppData/Local/Temp/_gbsbuild/obj/script_s26a4_interact.rel
                                          [ script_s26a4_interact ]
C:/Users/luisc/AppData/Local/Temp/_gbsbuild/obj/script_s26a4_update.rel
                                          [ script_s26a4_update ]
C:/Users/luisc/AppData/Local/Temp/_gbsbuild/obj/script_s26a5_interact.rel
                                          [ script_s26a5_interact ]
C:/Users/luisc/AppData/Local/Temp/_gbsbuild/obj/script_s26a5_update.rel
                                          [ script_s26a5_update ]
C:/Users/luisc/AppData/Local/Temp/_gbsbuild/obj/script_s26a6_interact.rel
                                          [ script_s26a6_interact ]
C:/Users/luisc/AppData/Local/Temp/_gbsbuild/obj/script_s26a6_update.rel
                                          [ script_s26a6_update ]
C:/Users/luisc/AppData/Local/Temp/_gbsbuild/obj/script_s26a7_interact.rel
                                          [ script_s26a7_interact ]
C:/Users/luisc/AppData/Local/Temp/_gbsbuild/obj/script_s26a7_update.rel
                                          [ script_s26a7_update ]
C:/Users/luisc/AppData/Local/Temp/_gbsbuild/obj/script_s26a8_interact.rel
                                          [ script_s26a8_interact ]
C:/Users/luisc/AppData/Local/Temp/_gbsbuild/obj/script_s26a8_update.rel
                                          [ script_s26a8_update ]
C:/Users/luisc/AppData/Local/Temp/_gbsbuild/obj/script_s26a9_interact.rel
                                          [ script_s26a9_interact ]
C:/Users/luisc/AppData/Local/Temp/_gbsbuild/obj/script_s26a9_update.rel
                                          [ script_s26a9_update ]
C:/Users/luisc/AppData/Local/Temp/_gbsbuild/obj/script_s26t0_interact.rel
                                          [ script_s26t0_interact ]
C:/Users/luisc/AppData/Local/Temp/_gbsbuild/obj/script_s26t1_interact.rel
                                          [ script_s26t1_interact ]
C:/Users/luisc/AppData/Local/Temp/_gbsbuild/obj/script_s26t2_interact.rel
                                          [ script_s26t2_interact ]
C:/Users/luisc/AppData/Local/Temp/_gbsbuild/obj/script_s27_init.rel
                                          [ script_s27_init ]
C:/Users/luisc/AppData/Local/Temp/_gbsbuild/obj/script_s28_init.rel
                                          [ script_s28_init ]
C:/Users/luisc/AppData/Local/Temp/_gbsbuild/obj/script_s28_p_hit1.rel
                                          [ script_s28_p_hit1 ]
C:/Users/luisc/AppData/Local/Temp/_gbsbuild/obj/script_s28a2_interact.rel
                                          [ script_s28a2_interact ]
C:/Users/luisc/AppData/Local/Temp/_gbsbuild/obj/script_s28a2_update.rel
                                          [ script_s28a2_update ]
C:/Users/luisc/AppData/Local/Temp/_gbsbuild/obj/script_s28a3_interact.rel
                                          [ script_s28a3_interact ]
C:/Users/luisc/AppData/Local/Temp/_gbsbuild/obj/script_s28a4_update.rel
                                          [ script_s28a4_update ]
C:/Users/luisc/AppData/Local/Temp/_gbsbuild/obj/script_s28t0_interact.rel
                                          [ script_s28t0_interact ]
C:/Users/luisc/AppData/Local/Temp/_gbsbuild/obj/script_s29_init.rel
                                          [ script_s29_init ]
C:/Users/luisc/AppData/Local/Temp/_gbsbuild/obj/script_s2a0_update.rel
                                          [ script_s2a0_update ]
C:/Users/luisc/AppData/Local/Temp/_gbsbuild/obj/script_s3_init.rel
                                          [ script_s3_init ]
C:/Users/luisc/AppData/Local/Temp/_gbsbuild/obj/script_s30_init.rel
                                          [ script_s30_init ]
C:/Users/luisc/AppData/Local/Temp/_gbsbuild/obj/script_s30a0_update.rel
                                          [ script_s30a0_update ]
C:/Users/luisc/AppData/Local/Temp/_gbsbuild/obj/script_s30t0_interact.rel
                                          [ script_s30t0_interact ]
C:/Users/luisc/AppData/Local/Temp/_gbsbuild/obj/script_s31_init.rel
                                          [ script_s31_init ]
C:/Users/luisc/AppData/Local/Temp/_gbsbuild/obj/script_s32_init.rel
                                          [ script_s32_init ]
C:/Users/luisc/AppData/Local/Temp/_gbsbuild/obj/script_s32a0_update.rel
                                          [ script_s32a0_update ]
C:/Users/luisc/AppData/Local/Temp/_gbsbuild/obj/script_s32t0_interact.rel
                                          [ script_s32t0_interact ]
C:/Users/luisc/AppData/Local/Temp/_gbsbuild/obj/script_s33_init.rel
                                          [ script_s33_init ]
C:/Users/luisc/AppData/Local/Temp/_gbsbuild/obj/script_s34_init.rel
                                          [ script_s34_init ]
C:/Users/luisc/AppData/Local/Temp/_gbsbuild/obj/script_s34a0_update.rel
                                          [ script_s34a0_update ]
C:/Users/luisc/AppData/Local/Temp/_gbsbuild/obj/script_s34t0_interact.rel
                                          [ script_s34t0_interact ]
C:/Users/luisc/AppData/Local/Temp/_gbsbuild/obj/script_s37_init.rel
                                          [ script_s37_init ]
C:/Users/luisc/AppData/Local/Temp/_gbsbuild/obj/script_s38_init.rel
                                          [ script_s38_init ]
C:/Users/luisc/AppData/Local/Temp/_gbsbuild/obj/script_s39_init.rel
                                          [ script_s39_init ]
C:/Users/luisc/AppData/Local/Temp/_gbsbuild/obj/script_s3a0_update.rel
                                          [ script_s3a0_update ]
C:/Users/luisc/AppData/Local/Temp/_gbsbuild/obj/script_s4_init.rel
                                          [ script_s4_init ]
C:/Users/luisc/AppData/Local/Temp/_gbsbuild/obj/script_s40_init.rel
                                          [ script_s40_init ]
C:/Users/luisc/AppData/Local/Temp/_gbsbuild/obj/script_s5_init.rel
                                          [ script_s5_init ]
C:/Users/luisc/AppData/Local/Temp/_gbsbuild/obj/script_s6_init.rel
                                          [ script_s6_init ]
C:/Users/luisc/AppData/Local/Temp/_gbsbuild/obj/script_s6a0_update.rel
                                          [ script_s6a0_update ]
C:/Users/luisc/AppData/Local/Temp/_gbsbuild/obj/script_s7_init.rel
                                          [ script_s7_init ]
C:/Users/luisc/AppData/Local/Temp/_gbsbuild/obj/script_s8_init.rel
                                          [ script_s8_init ]
C:/Users/luisc/AppData/Local/Temp/_gbsbuild/obj/script_s8_p_hit1.rel
                                          [ script_s8_p_hit1 ]
C:/Users/luisc/AppData/Local/Temp/_gbsbuild/obj/script_s8a0_update.rel
                                          [ script_s8a0_update ]
C:/Users/luisc/AppData/Local/Temp/_gbsbuild/obj/script_s8a1_update.rel
                                          [ script_s8a1_update ]
C:/Users/luisc/AppData/Local/Temp/_gbsbuild/obj/script_s8a11_interact.rel
                                          [ script_s8a11_interact ]
C:/Users/luisc/AppData/Local/Temp/_gbsbuild/obj/script_s8a11_update.rel
                                          [ script_s8a11_update ]
C:/Users/luisc/AppData/Local/Temp/_gbsbuild/obj/script_s8a12_interact.rel
                                          [ script_s8a12_interact ]
C:/Users/luisc/AppData/Local/Temp/_gbsbuild/obj/script_s8a12_update.rel
                                          [ script_s8a12_update ]
C:/Users/luisc/AppData/Local/Temp/_gbsbuild/obj/script_s8a13_interact.rel
                                          [ script_s8a13_interact ]
C:/Users/luisc/AppData/Local/Temp/_gbsbuild/obj/script_s8a13_update.rel
                                          [ script_s8a13_update ]
C:/Users/luisc/AppData/Local/Temp/_gbsbuild/obj/script_s8a14_interact.rel
                                          [ script_s8a14_interact ]
C:/Users/luisc/AppData/Local/Temp/_gbsbuild/obj/script_s8a14_update.rel
                                          [ script_s8a14_update ]
C:/Users/luisc/AppData/Local/Temp/_gbsbuild/obj/script_s8a15_interact.rel
                                          [ script_s8a15_interact ]
C:/Users/luisc/AppData/Local/Temp/_gbsbuild/obj/script_s8a15_update.rel
                                          [ script_s8a15_update ]
C:/Users/luisc/AppData/Local/Temp/_gbsbuild/obj/script_s8a16_interact.rel
                                          [ script_s8a16_interact ]
C:/Users/luisc/AppData/Local/Temp/_gbsbuild/obj/script_s8a16_update.rel
                                          [ script_s8a16_update ]
C:/Users/luisc/AppData/Local/Temp/_gbsbuild/obj/script_s8a17_interact.rel
                                          [ script_s8a17_interact ]
C:/Users/luisc/AppData/Local/Temp/_gbsbuild/obj/script_s8a17_update.rel
                                          [ script_s8a17_update ]
C:/Users/luisc/AppData/Local/Temp/_gbsbuild/obj/script_s8a2_interact.rel
                                          [ script_s8a2_interact ]
C:/Users/luisc/AppData/Local/Temp/_gbsbuild/obj/script_s8a3_interact.rel
                                          [ script_s8a3_interact ]
C:/Users/luisc/AppData/Local/Temp/_gbsbuild/obj/script_s8a3_update.rel
                                          [ script_s8a3_update ]
C:/Users/luisc/AppData/Local/Temp/_gbsbuild/obj/script_s8a5_interact.rel
                                          [ script_s8a5_interact ]
C:/Users/luisc/AppData/Local/Temp/_gbsbuild/obj/script_s8a5_update.rel
                                          [ script_s8a5_update ]
C:/Users/luisc/AppData/Local/Temp/_gbsbuild/obj/script_s8a6_interact.rel
                                          [ script_s8a6_interact ]
C:/Users/luisc/AppData/Local/Temp/_gbsbuild/obj/script_s8a6_update.rel
                                          [ script_s8a6_update ]
C:/Users/luisc/AppData/Local/Temp/_gbsbuild/obj/script_s8a7_interact.rel
                                          [ script_s8a7_interact ]
C:/Users/luisc/AppData/Local/Temp/_gbsbuild/obj/script_s8a7_update.rel
                                          [ script_s8a7_update ]
C:/Users/luisc/AppData/Local/Temp/_gbsbuild/obj/script_s8a8_interact.rel
                                          [ script_s8a8_interact ]
C:/Users/luisc/AppData/Local/Temp/_gbsbuild/obj/script_s8a8_update.rel
                                          [ script_s8a8_update ]
C:/Users/luisc/AppData/Local/Temp/_gbsbuild/obj/script_s8a9_interact.rel
                                          [ script_s8a9_interact ]
C:/Users/luisc/AppData/Local/Temp/_gbsbuild/obj/script_s8a9_update.rel
                                          [ script_s8a9_update ]
C:/Users/luisc/AppData/Local/Temp/_gbsbuild/obj/script_s8t0_interact.rel
                                          [ script_s8t0_interact ]
C:/Users/luisc/AppData/Local/Temp/_gbsbuild/obj/script_s9_init.rel
                                          [ script_s9_init ]
C:/Users/luisc/AppData/Local/Temp/_gbsbuild/obj/spritesheet_0.rel
                                          [ spritesheet_0 ]
C:/Users/luisc/AppData/Local/Temp/_gbsbuild/obj/spritesheet_1.rel
                                          [ spritesheet_1 ]
C:/Users/luisc/AppData/Local/Temp/_gbsbuild/obj/spritesheet_10.rel
                                          [ spritesheet_10 ]
C:/Users/luisc/AppData/Local/Temp/_gbsbuild/obj/spritesheet_11.rel
                                          [ spritesheet_11 ]
C:/Users/luisc/AppData/Local/Temp/_gbsbuild/obj/spritesheet_12.rel
                                          [ spritesheet_12 ]
C:/Users/luisc/AppData/Local/Temp/_gbsbuild/obj/spritesheet_13.rel
                                          [ spritesheet_13 ]
C:/Users/luisc/AppData/Local/Temp/_gbsbuild/obj/spritesheet_14.rel
                                          [ spritesheet_14 ]
C:/Users/luisc/AppData/Local/Temp/_gbsbuild/obj/spritesheet_15.rel
                                          [ spritesheet_15 ]
C:/Users/luisc/AppData/Local/Temp/_gbsbuild/obj/spritesheet_16.rel
                                          [ spritesheet_16 ]
C:/Users/luisc/AppData/Local/Temp/_gbsbuild/obj/spritesheet_17.rel
                                          [ spritesheet_17 ]
C:/Users/luisc/AppData/Local/Temp/_gbsbuild/obj/spritesheet_18.rel
                                          [ spritesheet_18 ]
C:/Users/luisc/AppData/Local/Temp/_gbsbuild/obj/spritesheet_19.rel
                                          [ spritesheet_19 ]
C:/Users/luisc/AppData/Local/Temp/_gbsbuild/obj/spritesheet_2.rel
                                          [ spritesheet_2 ]
C:/Users/luisc/AppData/Local/Temp/_gbsbuild/obj/spritesheet_20.rel
                                          [ spritesheet_20 ]
C:/Users/luisc/AppData/Local/Temp/_gbsbuild/obj/spritesheet_21.rel
                                          [ spritesheet_21 ]
C:/Users/luisc/AppData/Local/Temp/_gbsbuild/obj/spritesheet_22.rel
                                          [ spritesheet_22 ]
C:/Users/luisc/AppData/Local/Temp/_gbsbuild/obj/spritesheet_23.rel
                                          [ spritesheet_23 ]
C:/Users/luisc/AppData/Local/Temp/_gbsbuild/obj/spritesheet_24.rel
                                          [ spritesheet_24 ]
C:/Users/luisc/AppData/Local/Temp/_gbsbuild/obj/spritesheet_25.rel
                                          [ spritesheet_25 ]
C:/Users/luisc/AppData/Local/Temp/_gbsbuild/obj/spritesheet_26.rel
                                          [ spritesheet_26 ]
C:/Users/luisc/AppData/Local/Temp/_gbsbuild/obj/spritesheet_27.rel
                                          [ spritesheet_27 ]
C:/Users/luisc/AppData/Local/Temp/_gbsbuild/obj/spritesheet_28.rel
                                          [ spritesheet_28 ]
C:/Users/luisc/AppData/Local/Temp/_gbsbuild/obj/spritesheet_29.rel
                                          [ spritesheet_29 ]
C:/Users/luisc/AppData/Local/Temp/_gbsbuild/obj/spritesheet_3.rel
                                          [ spritesheet_3 ]
C:/Users/luisc/AppData/Local/Temp/_gbsbuild/obj/spritesheet_30.rel
                                          [ spritesheet_30 ]
C:/Users/luisc/AppData/Local/Temp/_gbsbuild/obj/spritesheet_31.rel
                                          [ spritesheet_31 ]
C:/Users/luisc/AppData/Local/Temp/_gbsbuild/obj/spritesheet_32.rel
                                          [ spritesheet_32 ]
C:/Users/luisc/AppData/Local/Temp/_gbsbuild/obj/spritesheet_33.rel
                                          [ spritesheet_33 ]
C:/Users/luisc/AppData/Local/Temp/_gbsbuild/obj/spritesheet_34.rel
                                          [ spritesheet_34 ]
C:/Users/luisc/AppData/Local/Temp/_gbsbuild/obj/spritesheet_35.rel
                                          [ spritesheet_35 ]
C:/Users/luisc/AppData/Local/Temp/_gbsbuild/obj/spritesheet_36.rel
                                          [ spritesheet_36 ]
C:/Users/luisc/AppData/Local/Temp/_gbsbuild/obj/spritesheet_37.rel
                                          [ spritesheet_37 ]
C:/Users/luisc/AppData/Local/Temp/_gbsbuild/obj/spritesheet_38.rel
                                          [ spritesheet_38 ]
C:/Users/luisc/AppData/Local/Temp/_gbsbuild/obj/spritesheet_39.rel
                                          [ spritesheet_39 ]
C:/Users/luisc/AppData/Local/Temp/_gbsbuild/obj/spritesheet_4.rel
                                          [ spritesheet_4 ]
C:/Users/luisc/AppData/Local/Temp/_gbsbuild/obj/spritesheet_40.rel
                                          [ spritesheet_40 ]
C:/Users/luisc/AppData/Local/Temp/_gbsbuild/obj/spritesheet_41.rel
                                          [ spritesheet_41 ]
C:/Users/luisc/AppData/Local/Temp/_gbsbuild/obj/spritesheet_42.rel
                                          [ spritesheet_42 ]
C:/Users/luisc/AppData/Local/Temp/_gbsbuild/obj/spritesheet_43.rel
                                          [ spritesheet_43 ]
C:/Users/luisc/AppData/Local/Temp/_gbsbuild/obj/spritesheet_44.rel
                                          [ spritesheet_44 ]
C:/Users/luisc/AppData/Local/Temp/_gbsbuild/obj/spritesheet_45.rel
                                          [ spritesheet_45 ]
C:/Users/luisc/AppData/Local/Temp/_gbsbuild/obj/spritesheet_46.rel
                                          [ spritesheet_46 ]
C:/Users/luisc/AppData/Local/Temp/_gbsbuild/obj/spritesheet_47.rel
                                          [ spritesheet_47 ]
C:/Users/luisc/AppData/Local/Temp/_gbsbuild/obj/spritesheet_48.rel
                                          [ spritesheet_48 ]
C:/Users/luisc/AppData/Local/Temp/_gbsbuild/obj/spritesheet_49.rel
                                          [ spritesheet_49 ]
C:/Users/luisc/AppData/Local/Temp/_gbsbuild/obj/spritesheet_5.rel
                                          [ spritesheet_5 ]
C:/Users/luisc/AppData/Local/Temp/_gbsbuild/obj/spritesheet_6.rel
                                          [ spritesheet_6 ]
C:/Users/luisc/AppData/Local/Temp/_gbsbuild/obj/spritesheet_7.rel
                                          [ spritesheet_7 ]
C:/Users/luisc/AppData/Local/Temp/_gbsbuild/obj/spritesheet_8.rel
                                          [ spritesheet_8 ]
C:/Users/luisc/AppData/Local/Temp/_gbsbuild/obj/spritesheet_9.rel
                                          [ spritesheet_9 ]
C:/Users/luisc/AppData/Local/Temp/_gbsbuild/obj/spritesheet_none.rel
                                          [ spritesheet_none ]
C:/Users/luisc/AppData/Local/Temp/_gbsbuild/obj/tilemap_0.rel
                                          [ tilemap_0 ]
C:/Users/luisc/AppData/Local/Temp/_gbsbuild/obj/tilemap_1.rel
                                          [ tilemap_1 ]
C:/Users/luisc/AppData/Local/Temp/_gbsbuild/obj/tilemap_10.rel
                                          [ tilemap_10 ]
C:/Users/luisc/AppData/Local/Temp/_gbsbuild/obj/tilemap_11.rel
                                          [ tilemap_11 ]
C:/Users/luisc/AppData/Local/Temp/_gbsbuild/obj/tilemap_12.rel
                                          [ tilemap_12 ]
C:/Users/luisc/AppData/Local/Temp/_gbsbuild/obj/tilemap_13.rel
                                          [ tilemap_13 ]
C:/Users/luisc/AppData/Local/Temp/_gbsbuild/obj/tilemap_14.rel
                                          [ tilemap_14 ]
C:/Users/luisc/AppData/Local/Temp/_gbsbuild/obj/tilemap_15.rel
                                          [ tilemap_15 ]
C:/Users/luisc/AppData/Local/Temp/_gbsbuild/obj/tilemap_16.rel
                                          [ tilemap_16 ]
C:/Users/luisc/AppData/Local/Temp/_gbsbuild/obj/tilemap_17.rel
                                          [ tilemap_17 ]
C:/Users/luisc/AppData/Local/Temp/_gbsbuild/obj/tilemap_18.rel
                                          [ tilemap_18 ]
C:/Users/luisc/AppData/Local/Temp/_gbsbuild/obj/tilemap_19.rel
                                          [ tilemap_19 ]
C:/Users/luisc/AppData/Local/Temp/_gbsbuild/obj/tilemap_2.rel
                                          [ tilemap_2 ]
C:/Users/luisc/AppData/Local/Temp/_gbsbuild/obj/tilemap_20.rel
                                          [ tilemap_20 ]
C:/Users/luisc/AppData/Local/Temp/_gbsbuild/obj/tilemap_21.rel
                                          [ tilemap_21 ]
C:/Users/luisc/AppData/Local/Temp/_gbsbuild/obj/tilemap_22.rel
                                          [ tilemap_22 ]
C:/Users/luisc/AppData/Local/Temp/_gbsbuild/obj/tilemap_23.rel
                                          [ tilemap_23 ]
C:/Users/luisc/AppData/Local/Temp/_gbsbuild/obj/tilemap_24.rel
                                          [ tilemap_24 ]
C:/Users/luisc/AppData/Local/Temp/_gbsbuild/obj/tilemap_25.rel
                                          [ tilemap_25 ]
C:/Users/luisc/AppData/Local/Temp/_gbsbuild/obj/tilemap_26.rel
                                          [ tilemap_26 ]
C:/Users/luisc/AppData/Local/Temp/_gbsbuild/obj/tilemap_27.rel
                                          [ tilemap_27 ]
C:/Users/luisc/AppData/Local/Temp/_gbsbuild/obj/tilemap_28.rel
                                          [ tilemap_28 ]
C:/Users/luisc/AppData/Local/Temp/_gbsbuild/obj/tilemap_29.rel
                                          [ tilemap_29 ]
C:/Users/luisc/AppData/Local/Temp/_gbsbuild/obj/tilemap_3.rel
                                          [ tilemap_3 ]
C:/Users/luisc/AppData/Local/Temp/_gbsbuild/obj/tilemap_30.rel
                                          [ tilemap_30 ]
C:/Users/luisc/AppData/Local/Temp/_gbsbuild/obj/tilemap_31.rel
                                          [ tilemap_31 ]
C:/Users/luisc/AppData/Local/Temp/_gbsbuild/obj/tilemap_32.rel
                                          [ tilemap_32 ]
C:/Users/luisc/AppData/Local/Temp/_gbsbuild/obj/tilemap_33.rel
                                          [ tilemap_33 ]
C:/Users/luisc/AppData/Local/Temp/_gbsbuild/obj/tilemap_34.rel
                                          [ tilemap_34 ]
C:/Users/luisc/AppData/Local/Temp/_gbsbuild/obj/tilemap_35.rel
                                          [ tilemap_35 ]
C:/Users/luisc/AppData/Local/Temp/_gbsbuild/obj/tilemap_36.rel
                                          [ tilemap_36 ]
C:/Users/luisc/AppData/Local/Temp/_gbsbuild/obj/tilemap_37.rel
                                          [ tilemap_37 ]
C:/Users/luisc/AppData/Local/Temp/_gbsbuild/obj/tilemap_38.rel
                                          [ tilemap_38 ]
C:/Users/luisc/AppData/Local/Temp/_gbsbuild/obj/tilemap_4.rel
                                          [ tilemap_4 ]
C:/Users/luisc/AppData/Local/Temp/_gbsbuild/obj/tilemap_5.rel
                                          [ tilemap_5 ]
C:/Users/luisc/AppData/Local/Temp/_gbsbuild/obj/tilemap_6.rel
                                          [ tilemap_6 ]
C:/Users/luisc/AppData/Local/Temp/_gbsbuild/obj/tilemap_7.rel
                                          [ tilemap_7 ]
C:/Users/luisc/AppData/Local/Temp/_gbsbuild/obj/tilemap_8.rel
                                          [ tilemap_8 ]
C:/Users/luisc/AppData/Local/Temp/_gbsbuild/obj/tilemap_9.rel
                                          [ tilemap_9 ]
C:/Users/luisc/AppData/Local/Temp/_gbsbuild/obj/tilemap_attr_0.rel
                                          [ tilemap_attr_0 ]
C:/Users/luisc/AppData/Local/Temp/_gbsbuild/obj/tilemap_attr_1.rel
                                          [ tilemap_attr_1 ]
C:/Users/luisc/AppData/Local/Temp/_gbsbuild/obj/tilemap_attr_10.rel
                                          [ tilemap_attr_10 ]
C:/Users/luisc/AppData/Local/Temp/_gbsbuild/obj/tilemap_attr_11.rel
                                          [ tilemap_attr_11 ]
C:/Users/luisc/AppData/Local/Temp/_gbsbuild/obj/tilemap_attr_12.rel
                                          [ tilemap_attr_12 ]
C:/Users/luisc/AppData/Local/Temp/_gbsbuild/obj/tilemap_attr_13.rel
                                          [ tilemap_attr_13 ]
C:/Users/luisc/AppData/Local/Temp/_gbsbuild/obj/tilemap_attr_14.rel
                                          [ tilemap_attr_14 ]
C:/Users/luisc/AppData/Local/Temp/_gbsbuild/obj/tilemap_attr_15.rel
                                          [ tilemap_attr_15 ]
C:/Users/luisc/AppData/Local/Temp/_gbsbuild/obj/tilemap_attr_16.rel
                                          [ tilemap_attr_16 ]
C:/Users/luisc/AppData/Local/Temp/_gbsbuild/obj/tilemap_attr_17.rel
                                          [ tilemap_attr_17 ]
C:/Users/luisc/AppData/Local/Temp/_gbsbuild/obj/tilemap_attr_18.rel
                                          [ tilemap_attr_18 ]
C:/Users/luisc/AppData/Local/Temp/_gbsbuild/obj/tilemap_attr_19.rel
                                          [ tilemap_attr_19 ]
C:/Users/luisc/AppData/Local/Temp/_gbsbuild/obj/tilemap_attr_2.rel
                                          [ tilemap_attr_2 ]
C:/Users/luisc/AppData/Local/Temp/_gbsbuild/obj/tilemap_attr_20.rel
                                          [ tilemap_attr_20 ]
C:/Users/luisc/AppData/Local/Temp/_gbsbuild/obj/tilemap_attr_21.rel
                                          [ tilemap_attr_21 ]
C:/Users/luisc/AppData/Local/Temp/_gbsbuild/obj/tilemap_attr_22.rel
                                          [ tilemap_attr_22 ]
C:/Users/luisc/AppData/Local/Temp/_gbsbuild/obj/tilemap_attr_3.rel
                                          [ tilemap_attr_3 ]
C:/Users/luisc/AppData/Local/Temp/_gbsbuild/obj/tilemap_attr_4.rel
                                          [ tilemap_attr_4 ]
C:/Users/luisc/AppData/Local/Temp/_gbsbuild/obj/tilemap_attr_5.rel
                                          [ tilemap_attr_5 ]
C:/Users/luisc/AppData/Local/Temp/_gbsbuild/obj/tilemap_attr_6.rel
                                          [ tilemap_attr_6 ]
C:/Users/luisc/AppData/Local/Temp/_gbsbuild/obj/tilemap_attr_7.rel
                                          [ tilemap_attr_7 ]
C:/Users/luisc/AppData/Local/Temp/_gbsbuild/obj/tilemap_attr_8.rel
                                          [ tilemap_attr_8 ]
C:/Users/luisc/AppData/Local/Temp/_gbsbuild/obj/tilemap_attr_9.rel
                                          [ tilemap_attr_9 ]
C:/Users/luisc/AppData/Local/Temp/_gbsbuild/obj/tileset_0.rel
                                          [ tileset_0 ]
C:/Users/luisc/AppData/Local/Temp/_gbsbuild/obj/tileset_1.rel
                                          [ tileset_1 ]
C:/Users/luisc/AppData/Local/Temp/_gbsbuild/obj/tileset_10.rel
                                          [ tileset_10 ]
C:/Users/luisc/AppData/Local/Temp/_gbsbuild/obj/tileset_11.rel
                                          [ tileset_11 ]
C:/Users/luisc/AppData/Local/Temp/_gbsbuild/obj/tileset_12.rel
                                          [ tileset_12 ]
C:/Users/luisc/AppData/Local/Temp/_gbsbuild/obj/tileset_13.rel
                                          [ tileset_13 ]
C:/Users/luisc/AppData/Local/Temp/_gbsbuild/obj/tileset_14.rel
                                          [ tileset_14 ]
C:/Users/luisc/AppData/Local/Temp/_gbsbuild/obj/tileset_15.rel
                                          [ tileset_15 ]
C:/Users/luisc/AppData/Local/Temp/_gbsbuild/obj/tileset_16.rel
                                          [ tileset_16 ]
C:/Users/luisc/AppData/Local/Temp/_gbsbuild/obj/tileset_17.rel
                                          [ tileset_17 ]
C:/Users/luisc/AppData/Local/Temp/_gbsbuild/obj/tileset_18.rel
                                          [ tileset_18 ]
C:/Users/luisc/AppData/Local/Temp/_gbsbuild/obj/tileset_19.rel
                                          [ tileset_19 ]
C:/Users/luisc/AppData/Local/Temp/_gbsbuild/obj/tileset_2.rel
                                          [ tileset_2 ]
C:/Users/luisc/AppData/Local/Temp/_gbsbuild/obj/tileset_20.rel
                                          [ tileset_20 ]
C:/Users/luisc/AppData/Local/Temp/_gbsbuild/obj/tileset_21.rel
                                          [ tileset_21 ]
C:/Users/luisc/AppData/Local/Temp/_gbsbuild/obj/tileset_22.rel
                                          [ tileset_22 ]
C:/Users/luisc/AppData/Local/Temp/_gbsbuild/obj/tileset_23.rel
                                          [ tileset_23 ]
C:/Users/luisc/AppData/Local/Temp/_gbsbuild/obj/tileset_24.rel
                                          [ tileset_24 ]
C:/Users/luisc/AppData/Local/Temp/_gbsbuild/obj/tileset_25.rel
                                          [ tileset_25 ]
C:/Users/luisc/AppData/Local/Temp/_gbsbuild/obj/tileset_26.rel
                                          [ tileset_26 ]
C:/Users/luisc/AppData/Local/Temp/_gbsbuild/obj/tileset_27.rel
                                          [ tileset_27 ]
C:/Users/luisc/AppData/Local/Temp/_gbsbuild/obj/tileset_28.rel
                                          [ tileset_28 ]
C:/Users/luisc/AppData/Local/Temp/_gbsbuild/obj/tileset_29.rel
                                          [ tileset_29 ]
C:/Users/luisc/AppData/Local/Temp/_gbsbuild/obj/tileset_3.rel
                                          [ tileset_3 ]
C:/Users/luisc/AppData/Local/Temp/_gbsbuild/obj/tileset_30.rel
                                          [ tileset_30 ]
C:/Users/luisc/AppData/Local/Temp/_gbsbuild/obj/tileset_31.rel
                                          [ tileset_31 ]
C:/Users/luisc/AppData/Local/Temp/_gbsbuild/obj/tileset_32.rel
                                          [ tileset_32 ]
C:/Users/luisc/AppData/Local/Temp/_gbsbuild/obj/tileset_33.rel
                                          [ tileset_33 ]
C:/Users/luisc/AppData/Local/Temp/_gbsbuild/obj/tileset_34.rel
                                          [ tileset_34 ]
C:/Users/luisc/AppData/Local/Temp/_gbsbuild/obj/tileset_35.rel
                                          [ tileset_35 ]
C:/Users/luisc/AppData/Local/Temp/_gbsbuild/obj/tileset_36.rel
                                          [ tileset_36 ]
C:/Users/luisc/AppData/Local/Temp/_gbsbuild/obj/tileset_37.rel
                                          [ tileset_37 ]
C:/Users/luisc/AppData/Local/Temp/_gbsbuild/obj/tileset_38.rel
                                          [ tileset_38 ]
C:/Users/luisc/AppData/Local/Temp/_gbsbuild/obj/tileset_39.rel
                                          [ tileset_39 ]
C:/Users/luisc/AppData/Local/Temp/_gbsbuild/obj/tileset_4.rel
                                          [ tileset_4 ]
C:/Users/luisc/AppData/Local/Temp/_gbsbuild/obj/tileset_40.rel
                                          [ tileset_40 ]
C:/Users/luisc/AppData/Local/Temp/_gbsbuild/obj/tileset_41.rel
                                          [ tileset_41 ]
C:/Users/luisc/AppData/Local/Temp/_gbsbuild/obj/tileset_42.rel
                                          [ tileset_42 ]
C:/Users/luisc/AppData/Local/Temp/_gbsbuild/obj/tileset_43.rel
                                          [ tileset_43 ]
C:/Users/luisc/AppData/Local/Temp/_gbsbuild/obj/tileset_44.rel
                                          [ tileset_44 ]
C:/Users/luisc/AppData/Local/Temp/_gbsbuild/obj/tileset_45.rel
                                          [ tileset_45 ]
C:/Users/luisc/AppData/Local/Temp/_gbsbuild/obj/tileset_46.rel
                                          [ tileset_46 ]
C:/Users/luisc/AppData/Local/Temp/_gbsbuild/obj/tileset_47.rel
                                          [ tileset_47 ]
C:/Users/luisc/AppData/Local/Temp/_gbsbuild/obj/tileset_48.rel
                                          [ tileset_48 ]
C:/Users/luisc/AppData/Local/Temp/_gbsbuild/obj/tileset_49.rel
                                          [ tileset_49 ]
C:/Users/luisc/AppData/Local/Temp/_gbsbuild/obj/tileset_5.rel
                                          [ tileset_5 ]
C:/Users/luisc/AppData/Local/Temp/_gbsbuild/obj/tileset_50.rel
                                          [ tileset_50 ]
C:/Users/luisc/AppData/Local/Temp/_gbsbuild/obj/tileset_51.rel
                                          [ tileset_51 ]
C:/Users/luisc/AppData/Local/Temp/_gbsbuild/obj/tileset_52.rel
                                          [ tileset_52 ]
C:/Users/luisc/AppData/Local/Temp/_gbsbuild/obj/tileset_53.rel
                                          [ tileset_53 ]
C:/Users/luisc/AppData/Local/Temp/_gbsbuild/obj/tileset_54.rel
                                          [ tileset_54 ]
C:/Users/luisc/AppData/Local/Temp/_gbsbuild/obj/tileset_55.rel
                                          [ tileset_55 ]
C:/Users/luisc/AppData/Local/Temp/_gbsbuild/obj/tileset_56.rel
                                          [ tileset_56 ]
C:/Users/luisc/AppData/Local/Temp/_gbsbuild/obj/tileset_57.rel
                                          [ tileset_57 ]
C:/Users/luisc/AppData/Local/Temp/_gbsbuild/obj/tileset_58.rel
                                          [ tileset_58 ]
C:/Users/luisc/AppData/Local/Temp/_gbsbuild/obj/tileset_59.rel
                                          [ tileset_59 ]
C:/Users/luisc/AppData/Local/Temp/_gbsbuild/obj/tileset_6.rel
                                          [ tileset_6 ]
C:/Users/luisc/AppData/Local/Temp/_gbsbuild/obj/tileset_60.rel
                                          [ tileset_60 ]
C:/Users/luisc/AppData/Local/Temp/_gbsbuild/obj/tileset_61.rel
                                          [ tileset_61 ]
C:/Users/luisc/AppData/Local/Temp/_gbsbuild/obj/tileset_62.rel
                                          [ tileset_62 ]
C:/Users/luisc/AppData/Local/Temp/_gbsbuild/obj/tileset_63.rel
                                          [ tileset_63 ]
C:/Users/luisc/AppData/Local/Temp/_gbsbuild/obj/tileset_64.rel
                                          [ tileset_64 ]
C:/Users/luisc/AppData/Local/Temp/_gbsbuild/obj/tileset_7.rel
                                          [ tileset_7 ]
C:/Users/luisc/AppData/Local/Temp/_gbsbuild/obj/tileset_8.rel
                                          [ tileset_8 ]
C:/Users/luisc/AppData/Local/Temp/_gbsbuild/obj/tileset_9.rel
                                          [ tileset_9 ]
C:/Users/luisc/AppData/Local/Temp/_gbsbuild/obj/main.rel
                                          [ main ]
C:/Users/luisc/AppData/Local/Temp/_gbsbuild/obj/miau.rel
                                          [ miau ]
C:/Users/luisc/AppData/Local/Temp/_gbsbuild/obj/adventure.rel
                                          [ adventure ]
C:/Users/luisc/AppData/Local/Temp/_gbsbuild/obj/logo.rel
                                          [ logo ]
C:/Users/luisc/AppData/Local/Temp/_gbsbuild/obj/platform.rel
                                          [ platform ]
C:/Users/luisc/AppData/Local/Temp/_gbsbuild/obj/pointnclick.rel
                                          [ pointnclick ]
C:/Users/luisc/AppData/Local/Temp/_gbsbuild/obj/shmup.rel
                                          [ shmup ]
C:/Users/luisc/AppData/Local/Temp/_gbsbuild/obj/states_ptrs.rel
                                          [  ]
C:/Users/luisc/AppData/Local/Temp/_gbsbuild/obj/topdown.rel
                                          [ topdown ]


Libraries Linked                          [ object file ]

C:\Users\luisc\AppData\Local\Temp/_gbstools/gbdk/lib/small/asxxxx/gb/gb.lib
                                          [ fill_rect_wi.o ]
lib/gbt_player.lib                        [ gbt_player.o ]
C:\Users\luisc\AppData\Local\Temp/_gbstools/gbdk/lib/small/asxxxx/gb/gb.lib
                                          [ sfr.o ]
C:\Users\luisc\AppData\Local\Temp/_gbstools/gbdk/lib/small/asxxxx/gbz80/gbz80.lib
                                          [ rand.o ]
lib/gbt_player.lib                        [ gbt_player_bank1.o ]
C:\Users\luisc\AppData\Local\Temp/_gbstools/gbdk/lib/small/asxxxx/gb/gb.lib
                                          [ cgb_palettes.o ]
C:\Users\luisc\AppData\Local\Temp/_gbstools/gbdk/lib/small/asxxxx/gbz80/gbz80.lib
                                          [ mul.o ]
C:\Users\luisc\AppData\Local\Temp/_gbstools/gbdk/lib/small/asxxxx/gbz80/gbz80.lib
                                          [ abs.o ]
C:\Users\luisc\AppData\Local\Temp/_gbstools/gbdk/lib/small/asxxxx/gb/gb.lib
                                          [ set_wi_t.o ]
C:\Users\luisc\AppData\Local\Temp/_gbstools/gbdk/lib/small/asxxxx/gb/gb.lib
                                          [ set_data.o ]
C:\Users\luisc\AppData\Local\Temp/_gbstools/gbdk/lib/small/asxxxx/gbz80/gbz80.lib
                                          [ reverse.o ]
C:\Users\luisc\AppData\Local\Temp/_gbstools/gbdk/lib/small/asxxxx/gb/gb.lib
                                          [ far_ptr.o ]
C:\Users\luisc\AppData\Local\Temp/_gbstools/gbdk/lib/small/asxxxx/gb/gb.lib
                                          [ sgb.o ]
C:\Users\luisc\AppData\Local\Temp/_gbstools/gbdk/lib/small/asxxxx/gb/gb.lib
                                          [ lcd.o ]
C:\Users\luisc\AppData\Local\Temp/_gbstools/gbdk/lib/small/asxxxx/gb/gb.lib
                                          [ fill_rect.o ]
C:\Users\luisc\AppData\Local\Temp/_gbstools/gbdk/lib/small/asxxxx/gb/gb.lib
                                          [ cpy_data.o ]
C:\Users\luisc\AppData\Local\Temp/_gbstools/gbdk/lib/small/asxxxx/gb/gb.lib
                                          [ fill_rect_bk.o ]
C:\Users\luisc\AppData\Local\Temp/_gbstools/gbdk/lib/small/asxxxx/gb/gb.lib
                                          [ pad.o ]
C:\Users\luisc\AppData\Local\Temp/_gbstools/gbdk/lib/small/asxxxx/gb/gb.lib
                                          [ metasprites.o ]
C:\Users\luisc\AppData\Local\Temp/_gbstools/gbdk/lib/small/asxxxx/gbz80/gbz80.lib
                                          [ __sdcc_call_hl.o ]
C:\Users\luisc\AppData\Local\Temp/_gbstools/gbdk/lib/small/asxxxx/gbz80/gbz80.lib
                                          [ _memcpy.o ]
C:\Users\luisc\AppData\Local\Temp/_gbstools/gbdk/lib/small/asxxxx/gbz80/gbz80.lib
                                          [ _memset.o ]
C:\Users\luisc\AppData\Local\Temp/_gbstools/gbdk/lib/small/asxxxx/gb/gb.lib
                                          [ ___sdcc_bcall_ehl.o ]
C:\Users\luisc\AppData\Local\Temp/_gbstools/gbdk/lib/small/asxxxx/gb/gb.lib
                                          [ cgb.o ]
C:\Users\luisc\AppData\Local\Temp/_gbstools/gbdk/lib/small/asxxxx/gbz80/gbz80.lib
                                          [ div.o ]
C:\Users\luisc\AppData\Local\Temp/_gbstools/gbdk/lib/small/asxxxx/gb/gb.lib
                                          [ set_bk_t.o ]
C:\Users\luisc\AppData\Local\Temp/_gbstools/gbdk/lib/small/asxxxx/gb/gb.lib
                                          [ set_xy_t.o ]

ASxxxx Linker V03.00 + NoICE + sdld,  page 110.

User Base Address Definitions

_DATA=0xC0A0
_CODE=0x0200
ASxxxx Linker V03.00 + NoICE + sdld,  page 111.

User Global Definitions

.STACK=0xDF00
_shadow_OAM=0xC000
.refresh_OAM=0xFF80
__start_save=28

